(dp1
S'name'
p2
(dp3
S'length'
p4
I32768
sS'unique'
p5
I00
sS'sortable'
p6
I2
sS'sql'
p7
S'TEXT'
p8
sS'notnull'
p9
I00
sS'type'
p10
S'text'
p11
ssS'descr'
p12
(dp13
g4
I32768
sg5
I00
sg6
I3
sg7
S'TEXT'
p14
sg9
I00
sg10
g11
ssS'cazada'
p15
(dp16
g4
I32768
sg5
I00
sg6
I6
sg7
S'TEXT'
p17
sg9
I00
sg10
<<<<<<< HEAD
g11
=======
g15
ssS'descr'
p19
(dp20
S'sortable'
p21
L3L
sS'sql'
p22
S'TEXT'
p23
sS'length'
p24
L32768L
sS'notnull'
p25
L0L
sS'unique'
p26
L0L
sS'type'
p27
S'text'
p28
>>>>>>> af99486b5099ade436fa523849f31361b4039d77
ssS'lat'
p18
(dp19
g4
I32768
sg5
I00
sg6
I4
sg7
S'TEXT'
p20
sg9
I00
sg10
g11
ssS'lng'
p21
(dp22
g4
I32768
sg5
I00
sg6
I5
sg7
S'TEXT'
p23
sg9
I00
sg10
g11
ssS'id'
p24
(dp25
g4
I512
sg5
I00
sg6
I1
sg7
S'INTEGER PRIMARY KEY AUTOINCREMENT'
p26
sg9
I00
sg10
g24
ss.