(dp1
S'output'
p2
S"<type 'exceptions.UnicodeDecodeError'> 'utf8' codec can't decode byte 0xff in position 28: invalid start byte"
p3
sS'layer'
p4
S'C:\\web2py\\applications\\ChuwalTest\\controllers/chuMap.py'
p5
sS'code'
p6
S'# -*- coding: utf-8 -*-\nfrom gluon.serializers import loads_json\n\ndef index():\n    return dict()\n\n@cache.action()\ndef download():\n    """\n    allows downloading of uploaded files\n    http://..../[app]/default/download/[filename]\n    """\n    return response.download(request, db)\n\ndef call():\n    """\n    exposes services. for example:\n    http://..../[app]/default/call/jsonrpc\n    decorate with @services.jsonrpc the functions to expose\n    supports xml, json, xmlrpc, jsonrpc, amfrpc, rss, csv\n    """\n    return service()\n\ndef getUrlImagen(id):\n    file_id = 1\n    import cStringIO \n    import contenttype as c\n    s=cStringIO.StringIO() \n    (filename,file) = db.sculpture.fileImage.retrieve(db.sculpture[file_id].fileImage)\n    s.write(file.read())  \n    response.headers[\'Content-Type\'] = c.contenttype(filename)\n    response.headers[\'Content-Disposition\'] = \\\n    "attachment; filename=%s" % filename  \n    return s.getvalue()\n\n#Controlador para el mapa\ndef getMarkers():\n    places = []\n    rows = db(db.place.id >0 ).select()\n\n    for row in rows:\n        if(row.cazada==\'S\'):\n            x="\\Chuwal\\static\\images\\PinVerde.png"\n        else:\n            x="\\Chuwal\\static\\images\\PinRojo.png"\n        try:\n            imagen= getUrlImagen(1)\n        except:\n            imagen ="https://upload.wikimedia.org/wikipedia/commons/thumb/5/56/Run.svg/744px-Run.svg.png "\n        html = \'<img src="\'+ imagen+\'">\'\n        place = {\n            \'lat\' : row.lat,\n            \'lng\' : row.lng,\n            \'name\' : row.name,\n            \'cazada\':row.cazada,\n            \'icon\': x,\n            \'infoWindow\' : {\'content\' :\'<h1> HOLA</h1> <p>\'+ html },\n            \'onClick\':{}\n        }\n        places.append(place)\n    return response.json(places)\n\nresponse._vars=response._caller(getMarkers)\n'
p7
sS'snapshot'
p8
(dp9
S'exception'
p10
(dp11
S'__getslice__'
p12
S"<method-wrapper '__getslice__' of exceptions.UnicodeDecodeError object>"
p13
sS'encoding'
p14
S"'utf8'"
p15
sS'__str__'
p16
S"<method-wrapper '__str__' of exceptions.UnicodeDecodeError object>"
p17
sS'__reduce__'
p18
S'<built-in method __reduce__ of exceptions.UnicodeDecodeError object>'
p19
sS'__dict__'
p20
S'{}'
p21
sS'__sizeof__'
p22
S'<built-in method __sizeof__ of exceptions.UnicodeDecodeError object>'
p23
sS'__init__'
p24
S"<method-wrapper '__init__' of exceptions.UnicodeDecodeError object>"
p25
sS'__setattr__'
p26
S"<method-wrapper '__setattr__' of exceptions.UnicodeDecodeError object>"
p27
sS'__reduce_ex__'
p28
S'<built-in method __reduce_ex__ of exceptions.UnicodeDecodeError object>'
p29
sS'end'
p30
S'29'
p31
sS'__new__'
p32
S'<built-in method __new__ of type object>'
p33
sS'__format__'
p34
S'<built-in method __format__ of exceptions.UnicodeDecodeError object>'
p35
sS'__class__'
p36
S"<type 'exceptions.UnicodeDecodeError'>"
p37
sS'start'
p38
S'28'
p39
sS'__doc__'
p40
S"'Unicode decoding error.'"
p41
sS'object'
p42
S'\'<h1> HOLA</h1> <p><img src="\\xff\\xd8\\xff\\xe0\\x00\\x10JFIF\\x00\\x01\\x01\\x01\\x00`\\x00`\\x00\\x00...\\x04\\xa9\\x93T\\xd0\\xedfY\\xb5\\xa5\\x0c\\x99\\xff\\x00G\\xbf\\x99b\\xeaO\\xca\\x16\\x17^\\xfc\\xe1\\x98g<\\xe74QEx/\\x15U\\xbb\\xf3\\x1fA\\xf5x-\\x11\\xff\\xd9">\''
p43
sS'__getitem__'
p44
S"<method-wrapper '__getitem__' of exceptions.UnicodeDecodeError object>"
p45
sS'__setstate__'
p46
S'<built-in method __setstate__ of exceptions.UnicodeDecodeError object>'
p47
sS'__getattribute__'
p48
S"<method-wrapper '__getattribute__' of exceptions.UnicodeDecodeError object>"
p49
sS'args'
p50
S'(\'utf8\', \'<h1> HOLA</h1> <p><img src="\\xff\\xd8\\xff\\xe0\\x00\\x10JFIF\\x00\\x01\\x01\\x01\\x00`\\x00`\\x00\\x00...\\x04\\xa9\\x93T\\xd0\\xedfY\\xb5\\xa5\\x0c\\x99\\xff\\x00G\\xbf\\x99b\\xeaO\\xca\\x16\\x17^\\xfc\\xe1\\x98g<\\xe74QEx/\\x15U\\xbb\\xf3\\x1fA\\xf5x-\\x11\\xff\\xd9">\', 28, 29, \'invalid start byte\')'
p51
sS'reason'
p52
S"'invalid start byte'"
p53
sS'__subclasshook__'
p54
S'<built-in method __subclasshook__ of type object>'
p55
sS'__unicode__'
p56
S'<built-in method __unicode__ of exceptions.UnicodeDecodeError object>'
p57
sS'__delattr__'
p58
S"<method-wrapper '__delattr__' of exceptions.UnicodeDecodeError object>"
p59
sS'__repr__'
p60
S"<method-wrapper '__repr__' of exceptions.UnicodeDecodeError object>"
p61
sS'__hash__'
p62
S"<method-wrapper '__hash__' of exceptions.UnicodeDecodeError object>"
p63
ssS'evalue'
p64
S"'utf8' codec can't decode byte 0xff in position 28: invalid start byte"
p65
sS'request'
p66
cgluon.html
XML_unpickle
p67
(S's\xd4a\x00\x00<div><table><tr><td style="font-weight:bold;vertical-align:top;">ajax</td><td style="vertical-align:top;">:</td><td><div>True</div></td></tr><tr><td style="font-weight:bold;vertical-align:top;">application</td><td style="vertical-align:top;">:</td><td><div>ChuwalTest</div></td></tr><tr><td style="font-weight:bold;vertical-align:top;">args</td><td style="vertical-align:top;">:</td><td><div><table></table></div></td></tr><tr><td style="font-weight:bold;vertical-align:top;">cid</td><td style="vertical-align:top;">:</td><td><div>None</div></td></tr><tr><td style="font-weight:bold;vertical-align:top;">client</td><td style="vertical-align:top;">:</td><td><div>127.0.0.1</div></td></tr><tr><td style="font-weight:bold;vertical-align:top;">controller</td><td style="vertical-align:top;">:</td><td><div>chuMap</div></td></tr><tr><td style="font-weight:bold;vertical-align:top;">cookies</td><td style="vertical-align:top;">:</td><td><div><table><tr><td style="font-weight:bold;vertical-align:top;">session_id_admin</td><td style="vertical-align:top;">:</td><td><div>127.0.0.1-a13cf51c-bebd-4cd9-8e6a-72b87155ffe5<table><tr><td style="font-weight:bold;vertical-align:top;">comment</td><td style="vertical-align:top;">:</td><td><div></div></td></tr><tr><td style="font-weight:bold;vertical-align:top;">domain</td><td style="vertical-align:top;">:</td><td><div></div></td></tr><tr><td style="font-weight:bold;vertical-align:top;">expires</td><td style="vertical-align:top;">:</td><td><div></div></td></tr><tr><td style="font-weight:bold;vertical-align:top;">httponly</td><td style="vertical-align:top;">:</td><td><div></div></td></tr><tr><td style="font-weight:bold;vertical-align:top;">max-age</td><td style="vertical-align:top;">:</td><td><div></div></td></tr><tr><td style="font-weight:bold;vertical-align:top;">path</td><td style="vertical-align:top;">:</td><td><div></div></td></tr><tr><td style="font-weight:bold;vertical-align:top;">secure</td><td style="vertical-align:top;">:</td><td><div></div></td></tr><tr><td style="font-weight:bold;vertical-align:top;">version</td><td style="vertical-align:top;">:</td><td><div></div></td></tr></table></div></td></tr><tr><td style="font-weight:bold;vertical-align:top;">session_id_chuwal</td><td style="vertical-align:top;">:</td><td><div>127.0.0.1-0d78191a-9560-418e-ac50-1bca03dbecfb<table><tr><td style="font-weight:bold;vertical-align:top;">comment</td><td style="vertical-align:top;">:</td><td><div></div></td></tr><tr><td style="font-weight:bold;vertical-align:top;">domain</td><td style="vertical-align:top;">:</td><td><div></div></td></tr><tr><td style="font-weight:bold;vertical-align:top;">expires</td><td style="vertical-align:top;">:</td><td><div></div></td></tr><tr><td style="font-weight:bold;vertical-align:top;">httponly</td><td style="vertical-align:top;">:</td><td><div></div></td></tr><tr><td style="font-weight:bold;vertical-align:top;">max-age</td><td style="vertical-align:top;">:</td><td><div></div></td></tr><tr><td style="font-weight:bold;vertical-align:top;">path</td><td style="vertical-align:top;">:</td><td><div></div></td></tr><tr><td style="font-weight:bold;vertical-align:top;">secure</td><td style="vertical-align:top;">:</td><td><div></div></td></tr><tr><td style="font-weight:bold;vertical-align:top;">version</td><td style="vertical-align:top;">:</td><td><div></div></td></tr></table></div></td></tr><tr><td style="font-weight:bold;vertical-align:top;">session_id_chuwaltest</td><td style="vertical-align:top;">:</td><td><div>127.0.0.1-27b61766-a24a-4859-a7ed-75ff1f688e7d<table><tr><td style="font-weight:bold;vertical-align:top;">comment</td><td style="vertical-align:top;">:</td><td><div></div></td></tr><tr><td style="font-weight:bold;vertical-align:top;">domain</td><td style="vertical-align:top;">:</td><td><div></div></td></tr><tr><td style="font-weight:bold;vertical-align:top;">expires</td><td style="vertical-align:top;">:</td><td><div></div></td></tr><tr><td style="font-weight:bold;vertical-align:top;">httponly</td><td style="vertical-align:top;">:</td><td><div></div></td></tr><tr><td style="font-weight:bold;vertical-align:top;">max-age</td><td style="vertical-align:top;">:</td><td><div></div></td></tr><tr><td style="font-weight:bold;vertical-align:top;">path</td><td style="vertical-align:top;">:</td><td><div></div></td></tr><tr><td style="font-weight:bold;vertical-align:top;">secure</td><td style="vertical-align:top;">:</td><td><div></div></td></tr><tr><td style="font-weight:bold;vertical-align:top;">version</td><td style="vertical-align:top;">:</td><td><div></div></td></tr></table></div></td></tr><tr><td style="font-weight:bold;vertical-align:top;">session_id_welcome</td><td style="vertical-align:top;">:</td><td><div>127.0.0.1-fbb68b14-aaef-447e-aed2-b79b64ea4ccd<table><tr><td style="font-weight:bold;vertical-align:top;">comment</td><td style="vertical-align:top;">:</td><td><div></div></td></tr><tr><td style="font-weight:bold;vertical-align:top;">domain</td><td style="vertical-align:top;">:</td><td><div></div></td></tr><tr><td style="font-weight:bold;vertical-align:top;">expires</td><td style="vertical-align:top;">:</td><td><div></div></td></tr><tr><td style="font-weight:bold;vertical-align:top;">httponly</td><td style="vertical-align:top;">:</td><td><div></div></td></tr><tr><td style="font-weight:bold;vertical-align:top;">max-age</td><td style="vertical-align:top;">:</td><td><div></div></td></tr><tr><td style="font-weight:bold;vertical-align:top;">path</td><td style="vertical-align:top;">:</td><td><div></div></td></tr><tr><td style="font-weight:bold;vertical-align:top;">secure</td><td style="vertical-align:top;">:</td><td><div></div></td></tr><tr><td style="font-weight:bold;vertical-align:top;">version</td><td style="vertical-align:top;">:</td><td><div></div></td></tr></table></div></td></tr></table></div></td></tr><tr><td style="font-weight:bold;vertical-align:top;">env</td><td style="vertical-align:top;">:</td><td><div><table><tr><td style="font-weight:bold;vertical-align:top;">HTTP_ACCEPT</td><td style="vertical-align:top;">:</td><td><div>application/json, text/javascript, */*; q=0.01</div></td></tr><tr><td style="font-weight:bold;vertical-align:top;">HTTP_ACCEPT_ENCODING</td><td style="vertical-align:top;">:</td><td><div>gzip, deflate, sdch</div></td></tr><tr><td style="font-weight:bold;vertical-align:top;">HTTP_ACCEPT_LANGUAGE</td><td style="vertical-align:top;">:</td><td><div>es-419,es;q=0.8,en;q=0.6</div></td></tr><tr><td style="font-weight:bold;vertical-align:top;">HTTP_CACHE_CONTROL</td><td style="vertical-align:top;">:</td><td><div>max-age=0</div></td></tr><tr><td style="font-weight:bold;vertical-align:top;">HTTP_CONNECTION</td><td style="vertical-align:top;">:</td><td><div>keep-alive</div></td></tr><tr><td style="font-weight:bold;vertical-align:top;">HTTP_COOKIE</td><td style="vertical-align:top;">:</td><td><div>session_id_welcome=127.0.0.1-fbb68b14-aaef-447e-aed2-b79b64ea4ccd; session_id_chuwal=127.0.0.1-0d78191a-9560-418e-ac50-1bca03dbecfb; session_id_admin=127.0.0.1-a13cf51c-bebd-4cd9-8e6a-72b87155ffe5; session_id_chuwaltest=127.0.0.1-27b61766-a24a-4859-a7ed-75ff1f688e7d</div></td></tr><tr><td style="font-weight:bold;vertical-align:top;">HTTP_HOST</td><td style="vertical-align:top;">:</td><td><div>127.0.0.1:8000</div></td></tr><tr><td style="font-weight:bold;vertical-align:top;">HTTP_REFERER</td><td style="vertical-align:top;">:</td><td><div>http://127.0.0.1:8000/ChuwalTest/chuMap/index</div></td></tr><tr><td style="font-weight:bold;vertical-align:top;">HTTP_USER_AGENT</td><td style="vertical-align:top;">:</td><td><div>Mozilla/5.0 (Windows NT 6.1; WOW64) AppleWebKit/537.36 (KHTML, like Gecko) Chrome/51.0.2704.103 Safari/537.36</div></td></tr><tr><td style="font-weight:bold;vertical-align:top;">HTTP_X_REQUESTED_WITH</td><td style="vertical-align:top;">:</td><td><div>XMLHttpRequest</div></td></tr><tr><td style="font-weight:bold;vertical-align:top;">PATH_INFO</td><td style="vertical-align:top;">:</td><td><div>/ChuwalTest/chuMap/getMarkers</div></td></tr><tr><td style="font-weight:bold;vertical-align:top;">QUERY_STRING</td><td style="vertical-align:top;">:</td><td><div></div></td></tr><tr><td style="font-weight:bold;vertical-align:top;">REMOTE_ADDR</td><td style="vertical-align:top;">:</td><td><div>127.0.0.1</div></td></tr><tr><td style="font-weight:bold;vertical-align:top;">REMOTE_PORT</td><td style="vertical-align:top;">:</td><td><div>51752</div></td></tr><tr><td style="font-weight:bold;vertical-align:top;">REQUEST_METHOD</td><td style="vertical-align:top;">:</td><td><div>GET</div></td></tr><tr><td style="font-weight:bold;vertical-align:top;">SCRIPT_NAME</td><td style="vertical-align:top;">:</td><td><div></div></td></tr><tr><td style="font-weight:bold;vertical-align:top;">SERVER_NAME</td><td style="vertical-align:top;">:</td><td><div>Usuario-PC</div></td></tr><tr><td style="font-weight:bold;vertical-align:top;">SERVER_PORT</td><td style="vertical-align:top;">:</td><td><div>8000</div></td></tr><tr><td style="font-weight:bold;vertical-align:top;">SERVER_PROTOCOL</td><td style="vertical-align:top;">:</td><td><div>HTTP/1.1</div></td></tr><tr><td style="font-weight:bold;vertical-align:top;">SERVER_SOFTWARE</td><td style="vertical-align:top;">:</td><td><div>Rocket 1.2.6</div></td></tr><tr><td style="font-weight:bold;vertical-align:top;">app_folders</td><td style="vertical-align:top;">:</td><td><div>set([&#x27;C:\\\\web2py\\\\applications\\\\admin\\\\&#x27;, &#x27;C:\\\\web2py\\\\applications\\\\welcome\\\\&#x27;, &#x27;C:\\\\web2py\\\\applications\\\\Chuwal\\\\&#x27;, &#x27;C:\\\\web2py\\\\applications\\\\ChuwalTest\\\\&#x27;])</div></td></tr><tr><td style="font-weight:bold;vertical-align:top;">applications_parent</td><td style="vertical-align:top;">:</td><td><div>C:\\web2py</div></td></tr><tr><td style="font-weight:bold;vertical-align:top;">cmd_args</td><td style="vertical-align:top;">:</td><td><div><table></table></div></td></tr><tr><td style="font-weight:bold;vertical-align:top;">cmd_options</td><td style="vertical-align:top;">:</td><td><div>&lt;Values at 0x3679e18: {&#x27;verbose&#x27;: False, &#x27;ip&#x27;: &#x27;127.0.0.1&#x27;, &#x27;debuglevel&#x27;: 30, &#x27;with_scheduler&#x27;: False, &#x27;shutdown_timeout&#x27;: 5, &#x27;taskbar&#x27;: False, &#x27;with_coverage&#x27;: False, &#x27;pid_filename&#x27;: &#x27;httpserver.pid&#x27;, &#x27;maxthreads&#x27;: None, &#x27;softcron&#x27;: False, &#x27;server_name&#x27;: &#x27;Usuario-PC&#x27;, &#x27;bpython&#x27;: False, &#x27;nogui&#x27;: False, &#x27;port&#x27;: 8000, &#x27;print_errors&#x27;: False, &#x27;extcron&#x27;: False, &#x27;runcron&#x27;: False, &#x27;run_system_tests&#x27;: False, &#x27;test&#x27;: None, &#x27;folder&#x27;: &#x27;C:\\\\web2py&#x27;, &#x27;config&#x27;: &#x27;&#x27;, &#x27;minthreads&#x27;: None, &#x27;shell&#x27;: None, &#x27;run&#x27;: &#x27;&#x27;, &#x27;log_filename&#x27;: &#x27;httpserver.log&#x27;, &#x27;profiler_dir&#x27;: None, &#x27;args&#x27;: [&#x27;&#x27;], &#x27;socket_timeout&#x27;: 5, &#x27;ssl_ca_certificate&#x27;: None, &#x27;scheduler&#x27;: None, &#x27;interfaces&#x27;: None, &#x27;ssl_private_key&#x27;: &#x27;&#x27;, &#x27;gae&#x27;: None, &#x27;password&#x27;: &#x27;******&#x27;, &#x27;request_queue_size&#x27;: 5, &#x27;ssl_certificate&#x27;: &#x27;&#x27;, &#x27;cronjob&#x27;: False, &#x27;numthreads&#x27;: None, &#x27;quiet&#x27;: False, &#x27;import_models&#x27;: False, &#x27;timeout&#x27;: 10, &#x27;plain&#x27;: False, &#x27;nobanner&#x27;: False}&gt;</div></td></tr><tr><td style="font-weight:bold;vertical-align:top;">db_sessions</td><td style="vertical-align:top;">:</td><td><div>set([])</div></td></tr><tr><td style="font-weight:bold;vertical-align:top;">debugging</td><td style="vertical-align:top;">:</td><td><div>True</div></td></tr><tr><td style="font-weight:bold;vertical-align:top;">gluon_parent</td><td style="vertical-align:top;">:</td><td><div>C:\\web2py</div></td></tr><tr><td style="font-weight:bold;vertical-align:top;">http_accept</td><td style="vertical-align:top;">:</td><td><div>application/json, text/javascript, */*; q=0.01</div></td></tr><tr><td style="font-weight:bold;vertical-align:top;">http_accept_encoding</td><td style="vertical-align:top;">:</td><td><div>gzip, deflate, sdch</div></td></tr><tr><td style="font-weight:bold;vertical-align:top;">http_accept_language</td><td style="vertical-align:top;">:</td><td><div>es-419,es;q=0.8,en;q=0.6</div></td></tr><tr><td style="font-weight:bold;vertical-align:top;">http_cache_control</td><td style="vertical-align:top;">:</td><td><div>max-age=0</div></td></tr><tr><td style="font-weight:bold;vertical-align:top;">http_connection</td><td style="vertical-align:top;">:</td><td><div>keep-alive</div></td></tr><tr><td style="font-weight:bold;vertical-align:top;">http_cookie</td><td style="vertical-align:top;">:</td><td><div>session_id_welcome=127.0.0.1-fbb68b14-aaef-447e-aed2-b79b64ea4ccd; session_id_chuwal=127.0.0.1-0d78191a-9560-418e-ac50-1bca03dbecfb; session_id_admin=127.0.0.1-a13cf51c-bebd-4cd9-8e6a-72b87155ffe5; session_id_chuwaltest=127.0.0.1-27b61766-a24a-4859-a7ed-75ff1f688e7d</div></td></tr><tr><td style="font-weight:bold;vertical-align:top;">http_host</td><td style="vertical-align:top;">:</td><td><div>127.0.0.1:8000</div></td></tr><tr><td style="font-weight:bold;vertical-align:top;">http_referer</td><td style="vertical-align:top;">:</td><td><div>http://127.0.0.1:8000/ChuwalTest/chuMap/index</div></td></tr><tr><td style="font-weight:bold;vertical-align:top;">http_user_agent</td><td style="vertical-align:top;">:</td><td><div>Mozilla/5.0 (Windows NT 6.1; WOW64) AppleWebKit/537.36 (KHTML, like Gecko) Chrome/51.0.2704.103 Safari/537.36</div></td></tr><tr><td style="font-weight:bold;vertical-align:top;">http_x_requested_with</td><td style="vertical-align:top;">:</td><td><div>XMLHttpRequest</div></td></tr><tr><td style="font-weight:bold;vertical-align:top;">is_jython</td><td style="vertical-align:top;">:</td><td><div>False</div></td></tr><tr><td style="font-weight:bold;vertical-align:top;">is_pypy</td><td style="vertical-align:top;">:</td><td><div>False</div></td></tr><tr><td style="font-weight:bold;vertical-align:top;">is_source</td><td style="vertical-align:top;">:</td><td><div>False</div></td></tr><tr><td style="font-weight:bold;vertical-align:top;">local_hosts</td><td style="vertical-align:top;">:</td><td><div><table><tr><td><div>192.168.2.12</div></td></tr><tr><td><div>fe80::4988:61cb:e382:6545%13</div></td></tr><tr><td><div>Usuario-PC</div></td></tr><tr><td><div>::ffff:127.0.0.1</div></td></tr><tr><td><div>::1</div></td></tr><tr><td><div>127.0.0.1</div></td></tr></table></div></td></tr><tr><td style="font-weight:bold;vertical-align:top;">path_info</td><td style="vertical-align:top;">:</td><td><div>/ChuwalTest/chuMap/getMarkers</div></td></tr><tr><td style="font-weight:bold;vertical-align:top;">query_string</td><td style="vertical-align:top;">:</td><td><div></div></td></tr><tr><td style="font-weight:bold;vertical-align:top;">remote_addr</td><td style="vertical-align:top;">:</td><td><div>127.0.0.1</div></td></tr><tr><td style="font-weight:bold;vertical-align:top;">remote_port</td><td style="vertical-align:top;">:</td><td><div>51752</div></td></tr><tr><td style="font-weight:bold;vertical-align:top;">request_method</td><td style="vertical-align:top;">:</td><td><div>GET</div></td></tr><tr><td style="font-weight:bold;vertical-align:top;">request_uri</td><td style="vertical-align:top;">:</td><td><div>/ChuwalTest/chuMap/getMarkers</div></td></tr><tr><td style="font-weight:bold;vertical-align:top;">script_name</td><td style="vertical-align:top;">:</td><td><div></div></td></tr><tr><td style="font-weight:bold;vertical-align:top;">server_name</td><td style="vertical-align:top;">:</td><td><div>Usuario-PC</div></td></tr><tr><td style="font-weight:bold;vertical-align:top;">server_port</td><td style="vertical-align:top;">:</td><td><div>8000</div></td></tr><tr><td style="font-weight:bold;vertical-align:top;">server_protocol</td><td style="vertical-align:top;">:</td><td><div>HTTP/1.1</div></td></tr><tr><td style="font-weight:bold;vertical-align:top;">server_software</td><td style="vertical-align:top;">:</td><td><div>Rocket 1.2.6</div></td></tr><tr><td style="font-weight:bold;vertical-align:top;">web2py_path</td><td style="vertical-align:top;">:</td><td><div>C:\\web2py</div></td></tr><tr><td style="font-weight:bold;vertical-align:top;">web2py_version</td><td style="vertical-align:top;">:</td><td><div>2.14.6-stable+timestamp.2016.05.10.00.21.47</div></td></tr><tr><td style="font-weight:bold;vertical-align:top;">wsgi.errors</td><td style="vertical-align:top;">:</td><td><div>&lt;open file &#x27;&lt;stderr&gt;&#x27;, mode &#x27;w&#x27; at 0x01D6D0D0&gt;</div></td></tr><tr><td style="font-weight:bold;vertical-align:top;">wsgi.file_wrapper</td><td style="vertical-align:top;">:</td><td><div>&lt;class wsgiref.util.FileWrapper at 0x02F19570&gt;</div></td></tr><tr><td style="font-weight:bold;vertical-align:top;">wsgi.input</td><td style="vertical-align:top;">:</td><td><div>&lt;socket._fileobject object at 0x04187830&gt;</div></td></tr><tr><td style="font-weight:bold;vertical-align:top;">wsgi.multiprocess</td><td style="vertical-align:top;">:</td><td><div>False</div></td></tr><tr><td style="font-weight:bold;vertical-align:top;">wsgi.multithread</td><td style="vertical-align:top;">:</td><td><div>True</div></td></tr><tr><td style="font-weight:bold;vertical-align:top;">wsgi.run_once</td><td style="vertical-align:top;">:</td><td><div>False</div></td></tr><tr><td style="font-weight:bold;vertical-align:top;">wsgi.url_scheme</td><td style="vertical-align:top;">:</td><td><div>http</div></td></tr><tr><td style="font-weight:bold;vertical-align:top;">wsgi.version</td><td style="vertical-align:top;">:</td><td><div><table><tr><td><div>1</div></td></tr><tr><td><div>0</div></td></tr></table></div></td></tr><tr><td style="font-weight:bold;vertical-align:top;">wsgi_errors</td><td style="vertical-align:top;">:</td><td><div>&lt;open file &#x27;&lt;stderr&gt;&#x27;, mode &#x27;w&#x27; at 0x01D6D0D0&gt;</div></td></tr><tr><td style="font-weight:bold;vertical-align:top;">wsgi_file_wrapper</td><td style="vertical-align:top;">:</td><td><div>&lt;class wsgiref.util.FileWrapper at 0x02F19570&gt;</div></td></tr><tr><td style="font-weight:bold;vertical-align:top;">wsgi_input</td><td style="vertical-align:top;">:</td><td><div>&lt;socket._fileobject object at 0x04187830&gt;</div></td></tr><tr><td style="font-weight:bold;vertical-align:top;">wsgi_multiprocess</td><td style="vertical-align:top;">:</td><td><div>False</div></td></tr><tr><td style="font-weight:bold;vertical-align:top;">wsgi_multithread</td><td style="vertical-align:top;">:</td><td><div>True</div></td></tr><tr><td style="font-weight:bold;vertical-align:top;">wsgi_run_once</td><td style="vertical-align:top;">:</td><td><div>False</div></td></tr><tr><td style="font-weight:bold;vertical-align:top;">wsgi_url_scheme</td><td style="vertical-align:top;">:</td><td><div>http</div></td></tr><tr><td style="font-weight:bold;vertical-align:top;">wsgi_version</td><td style="vertical-align:top;">:</td><td><div><table><tr><td><div>1</div></td></tr><tr><td><div>0</div></td></tr></table></div></td></tr></table></div></td></tr><tr><td style="font-weight:bold;vertical-align:top;">extension</td><td style="vertical-align:top;">:</td><td><div>html</div></td></tr><tr><td style="font-weight:bold;vertical-align:top;">folder</td><td style="vertical-align:top;">:</td><td><div>C:\\web2py\\applications\\ChuwalTest\\</div></td></tr><tr><td style="font-weight:bold;vertical-align:top;">function</td><td style="vertical-align:top;">:</td><td><div>getMarkers</div></td></tr><tr><td style="font-weight:bold;vertical-align:top;">global_settings</td><td style="vertical-align:top;">:</td><td><div><table><tr><td style="font-weight:bold;vertical-align:top;">app_folders</td><td style="vertical-align:top;">:</td><td><div>set([&#x27;C:\\\\web2py\\\\applications\\\\admin\\\\&#x27;, &#x27;C:\\\\web2py\\\\applications\\\\welcome\\\\&#x27;, &#x27;C:\\\\web2py\\\\applications\\\\Chuwal\\\\&#x27;, &#x27;C:\\\\web2py\\\\applications\\\\ChuwalTest\\\\&#x27;])</div></td></tr><tr><td style="font-weight:bold;vertical-align:top;">applications_parent</td><td style="vertical-align:top;">:</td><td><div>C:\\web2py</div></td></tr><tr><td style="font-weight:bold;vertical-align:top;">cmd_args</td><td style="vertical-align:top;">:</td><td><div><table></table></div></td></tr><tr><td style="font-weight:bold;vertical-align:top;">cmd_options</td><td style="vertical-align:top;">:</td><td><div>&lt;Values at 0x3679e18: {&#x27;verbose&#x27;: False, &#x27;ip&#x27;: &#x27;127.0.0.1&#x27;, &#x27;debuglevel&#x27;: 30, &#x27;with_scheduler&#x27;: False, &#x27;shutdown_timeout&#x27;: 5, &#x27;taskbar&#x27;: False, &#x27;with_coverage&#x27;: False, &#x27;pid_filename&#x27;: &#x27;httpserver.pid&#x27;, &#x27;maxthreads&#x27;: None, &#x27;softcron&#x27;: False, &#x27;server_name&#x27;: &#x27;Usuario-PC&#x27;, &#x27;bpython&#x27;: False, &#x27;nogui&#x27;: False, &#x27;port&#x27;: 8000, &#x27;print_errors&#x27;: False, &#x27;extcron&#x27;: False, &#x27;runcron&#x27;: False, &#x27;run_system_tests&#x27;: False, &#x27;test&#x27;: None, &#x27;folder&#x27;: &#x27;C:\\\\web2py&#x27;, &#x27;config&#x27;: &#x27;&#x27;, &#x27;minthreads&#x27;: None, &#x27;shell&#x27;: None, &#x27;run&#x27;: &#x27;&#x27;, &#x27;log_filename&#x27;: &#x27;httpserver.log&#x27;, &#x27;profiler_dir&#x27;: None, &#x27;args&#x27;: [&#x27;&#x27;], &#x27;socket_timeout&#x27;: 5, &#x27;ssl_ca_certificate&#x27;: None, &#x27;scheduler&#x27;: None, &#x27;interfaces&#x27;: None, &#x27;ssl_private_key&#x27;: &#x27;&#x27;, &#x27;gae&#x27;: None, &#x27;password&#x27;: &#x27;******&#x27;, &#x27;request_queue_size&#x27;: 5, &#x27;ssl_certificate&#x27;: &#x27;&#x27;, &#x27;cronjob&#x27;: False, &#x27;numthreads&#x27;: None, &#x27;quiet&#x27;: False, &#x27;import_models&#x27;: False, &#x27;timeout&#x27;: 10, &#x27;plain&#x27;: False, &#x27;nobanner&#x27;: False}&gt;</div></td></tr><tr><td style="font-weight:bold;vertical-align:top;">db_sessions</td><td style="vertical-align:top;">:</td><td><div>set([])</div></td></tr><tr><td style="font-weight:bold;vertical-align:top;">debugging</td><td style="vertical-align:top;">:</td><td><div>True</div></td></tr><tr><td style="font-weight:bold;vertical-align:top;">gluon_parent</td><td style="vertical-align:top;">:</td><td><div>C:\\web2py</div></td></tr><tr><td style="font-weight:bold;vertical-align:top;">is_jython</td><td style="vertical-align:top;">:</td><td><div>False</div></td></tr><tr><td style="font-weight:bold;vertical-align:top;">is_pypy</td><td style="vertical-align:top;">:</td><td><div>False</div></td></tr><tr><td style="font-weight:bold;vertical-align:top;">is_source</td><td style="vertical-align:top;">:</td><td><div>False</div></td></tr><tr><td style="font-weight:bold;vertical-align:top;">local_hosts</td><td style="vertical-align:top;">:</td><td><div><table><tr><td><div>192.168.2.12</div></td></tr><tr><td><div>fe80::4988:61cb:e382:6545%13</div></td></tr><tr><td><div>Usuario-PC</div></td></tr><tr><td><div>::ffff:127.0.0.1</div></td></tr><tr><td><div>::1</div></td></tr><tr><td><div>127.0.0.1</div></td></tr></table></div></td></tr><tr><td style="font-weight:bold;vertical-align:top;">web2py_version</td><td style="vertical-align:top;">:</td><td><div>2.14.6-stable+timestamp.2016.05.10.00.21.47</div></td></tr></table></div></td></tr><tr><td style="font-weight:bold;vertical-align:top;">is_https</td><td style="vertical-align:top;">:</td><td><div>False</div></td></tr><tr><td style="font-weight:bold;vertical-align:top;">is_local</td><td style="vertical-align:top;">:</td><td><div>True</div></td></tr><tr><td style="font-weight:bold;vertical-align:top;">is_restful</td><td style="vertical-align:top;">:</td><td><div>False</div></td></tr><tr><td style="font-weight:bold;vertical-align:top;">is_scheduler</td><td style="vertical-align:top;">:</td><td><div>False</div></td></tr><tr><td style="font-weight:bold;vertical-align:top;">is_shell</td><td style="vertical-align:top;">:</td><td><div>False</div></td></tr><tr><td style="font-weight:bold;vertical-align:top;">now</td><td style="vertical-align:top;">:</td><td><div>datetime.datetime(2016, 6, 21, 12, 1, 56, 902000)</div></td></tr><tr><td style="font-weight:bold;vertical-align:top;">raw_args</td><td style="vertical-align:top;">:</td><td><div></div></td></tr><tr><td style="font-weight:bold;vertical-align:top;">raw_extension</td><td style="vertical-align:top;">:</td><td><div>None</div></td></tr><tr><td style="font-weight:bold;vertical-align:top;">url</td><td style="vertical-align:top;">:</td><td><div>/ChuwalTest/chuMap/getMarkers</div></td></tr><tr><td style="font-weight:bold;vertical-align:top;">utcnow</td><td style="vertical-align:top;">:</td><td><div>datetime.datetime(2016, 6, 21, 15, 1, 56, 902000)</div></td></tr><tr><td style="font-weight:bold;vertical-align:top;">wsgi</td><td style="vertical-align:top;">:</td><td><div>&lt;gluon.main.LazyWSGI object at 0x0780DC30&gt;</div></td></tr></table></div>'
tRp68
sS'frames'
p69
(lp70
(dp71
S'file'
p72
S'C:\\web2py\\gluon\\restricted.py'
p73
sS'dump'
p74
(dp75
S'environment'
p76
S"{'A': <class 'gluon.html.A'>, 'ANY_OF': <class 'gluon.validators.ANY_OF'>, 'ASSIGNJS': <function ASSIGNJS>, 'AppConfig': <function AppConfig>, 'Auth': <class 'gluon.tools.Auth'>, 'B': <class 'gluon.html.B'>, 'BEAUTIFY': <class 'gluon.html.BEAUTIFY'>, 'BODY': <class 'gluon.html.BODY'>, 'BR': <class 'gluon.html.BR'>, 'BUTTON': <class 'gluon.html.BUTTON'>, ...}"
p77
sS'ccode'
p78
S'<code object <module> at 074F1A88, file "C:\\web2...ations\\ChuwalTest\\controllers/chuMap.py", line 2>'
p79
ssS'lnum'
p80
I227
sS'lines'
p81
(dp82
I224
S'            ccode = code'
p83
sI225
S'        else:'
p84
sI226
S'            ccode = compile2(code, layer)'
p85
sI227
S'        exec ccode in environment'
p86
sI228
S'    except HTTP:'
p87
sI229
S'        raise'
p88
sI230
S'    except RestrictedError:'
p89
sI231
S'        # do not encapsulate (obfuscate) the original RestrictedError'
p90
sI222
S'    try:'
p91
sI223
S'        if isinstance(code, types.CodeType):'
p92
ssS'call'
p93
S"(code='# -*- coding: utf-8 -*-\\nfrom gluon.serializers i...es)\\n\\nresponse._vars=response._caller(getMarkers)\\n', environment={'A': <class 'gluon.html.A'>, 'ANY_OF': <class 'gluon.validators.ANY_OF'>, 'ASSIGNJS': <function ASSIGNJS>, 'AppConfig': <function AppConfig>, 'Auth': <class 'gluon.tools.Auth'>, 'B': <class 'gluon.html.B'>, 'BEAUTIFY': <class 'gluon.html.BEAUTIFY'>, 'BODY': <class 'gluon.html.BODY'>, 'BR': <class 'gluon.html.BR'>, 'BUTTON': <class 'gluon.html.BUTTON'>, ...}, layer=r'C:\\web2py\\applications\\ChuwalTest\\controllers/chuMap.py')"
p94
sS'func'
p95
S'restricted'
p96
sa(dp97
g72
S'C:\\web2py\\applications\\ChuwalTest\\controllers\\chuMap.py'
p98
sg74
(dp99
sg80
I63
sg81
(dp100
I52
S"            'lat' : row.lat,"
p101
sI53
S"            'lng' : row.lng,"
p102
sI54
S"            'name' : row.name,"
p103
sI55
S"            'cazada':row.cazada,"
p104
sI56
S"            'icon': x,"
p105
sI57
S"            'infoWindow' : {'content' :'<h1> HOLA</h1> <p>'+ html },"
p106
sI58
S"            'onClick':{}"
p107
sI59
S'        }'
p108
sI60
S'        places.append(place)'
p109
sI61
S'    return response.json(places)'
p110
ssg93
S'()'
p111
sg95
S'<module>'
p112
sa(dp113
g72
S'C:\\web2py\\gluon\\globals.py'
p114
sg74
(dp115
S'self'
p116
S'undefined'
p117
sS'f'
S'<function getMarkers>'
p118
ssg80
I417
sg81
(dp119
I416
S'        self._vars = None'
p120
sI417
S'        self._caller = lambda f: f()'
p121
sI418
S'        self._view_environment = None'
p122
sI419
S'        self._custom_commit = None'
p123
sI420
S'        self._custom_rollback = None'
p124
sI421
S"        self.generic_patterns = ['*']"
p125
sI412
S"        self.flash = ''            # used by the default view layout"
p126
sI413
S'        self.meta = Storage()      # used by web2py_ajax.html'
p127
sI414
S'        self.menu = []             # used by the default view layout'
p128
sI415
S'        self.files = []            # used by web2py_ajax.html'
p129
ssg93
S'(f=<function getMarkers>)'
p130
sg95
S'<lambda>'
p131
sa(dp132
g72
S'C:\\web2py\\applications\\ChuwalTest\\controllers\\chuMap.py'
p133
sg74
(dp134
S'places'
p135
S'[{\'cazada\': \'N\', \'icon\': r\'\\Chuwal\\static\\images\\PinRojo.png\', \'infoWindow\': {\'content\': \'<h1> HOLA</h1> <p><img src="\\xff\\xd8\\xff\\xe0\\x00\\x10JFIF\\x00\\x01\\x01\\x01\\x00`\\x00`\\x00\\x00...\\x04\\xa9\\x93T\\xd0\\xedfY\\xb5\\xa5\\x0c\\x99\\xff\\x00G\\xbf\\x99b\\xeaO\\xca\\x16\\x17^\\xfc\\xe1\\x98g<\\xe74QEx/\\x15U\\xbb\\xf3\\x1fA\\xf5x-\\x11\\xff\\xd9">\'}, \'lat\': \'-27.453432\', \'lng\': \'-58.98057\', \'name\': \'San Francisco\', \'onClick\': {}}]'
p136
sS'global response'
p137
S"<Storage {'body': <cStringIO.StringO object at 0...t 0x04018470>, 'view': 'chuMap/getMarkers.html'}>"
p138
sS'response.json'
p139
S"<bound method Response.json of <Storage {'body':... 0x04018470>, 'view': 'chuMap/getMarkers.html'}>>"
p140
ssg80
I61
sg81
(dp141
I52
S"            'lat' : row.lat,"
p142
sI53
S"            'lng' : row.lng,"
p143
sI54
S"            'name' : row.name,"
p144
sI55
S"            'cazada':row.cazada,"
p145
sI56
S"            'icon': x,"
p146
sI57
S"            'infoWindow' : {'content' :'<h1> HOLA</h1> <p>'+ html },"
p147
sI58
S"            'onClick':{}"
p148
sI59
S'        }'
p149
sI60
S'        places.append(place)'
p150
sI61
S'    return response.json(places)'
p151
ssg93
S'()'
p152
sg95
S'getMarkers'
p153
sa(dp154
g72
S'C:\\web2py\\gluon\\globals.py'
p155
sg74
(dp156
S'default'
p157
S'None'
p158
sS'global custom_json'
p159
S'<function custom_json>'
p160
sS'global json'
p161
S'<function json>'
p162
sS'data'
p163
S'[{\'cazada\': \'N\', \'icon\': r\'\\Chuwal\\static\\images\\PinRojo.png\', \'infoWindow\': {\'content\': \'<h1> HOLA</h1> <p><img src="\\xff\\xd8\\xff\\xe0\\x00\\x10JFIF\\x00\\x01\\x01\\x01\\x00`\\x00`\\x00\\x00...\\x04\\xa9\\x93T\\xd0\\xedfY\\xb5\\xa5\\x0c\\x99\\xff\\x00G\\xbf\\x99b\\xeaO\\xca\\x16\\x17^\\xfc\\xe1\\x98g<\\xe74QEx/\\x15U\\xbb\\xf3\\x1fA\\xf5x-\\x11\\xff\\xd9">\'}, \'lat\': \'-27.453432\', \'lng\': \'-58.98057\', \'name\': \'San Francisco\', \'onClick\': {}}]'
p164
ssg80
I661
sg81
(dp165
I656
S'        return self.stream(stream, chunk_size=chunk_size, request=request)'
p166
sI657
S''
sI658
S'    def json(self, data, default=None):'
p167
sI659
S"        if 'Content-Type' not in self.headers:"
p168
sI660
S"            self.headers['Content-Type'] = 'application/json'"
p169
sI661
S'        return json(data, default=default or custom_json)'
p170
sI662
S''
sI663
S'    def xmlrpc(self, request, methods):'
p171
sI664
S'        """'
p172
sI665
S'        assuming::'
p173
ssg93
S'(self=<Storage {\'body\': <cStringIO.StringO object at 0...t 0x04018470>, \'view\': \'chuMap/getMarkers.html\'}>, data=[{\'cazada\': \'N\', \'icon\': r\'\\Chuwal\\static\\images\\PinRojo.png\', \'infoWindow\': {\'content\': \'<h1> HOLA</h1> <p><img src="\\xff\\xd8\\xff\\xe0\\x00\\x10JFIF\\x00\\x01\\x01\\x01\\x00`\\x00`\\x00\\x00...\\x04\\xa9\\x93T\\xd0\\xedfY\\xb5\\xa5\\x0c\\x99\\xff\\x00G\\xbf\\x99b\\xeaO\\xca\\x16\\x17^\\xfc\\xe1\\x98g<\\xe74QEx/\\x15U\\xbb\\xf3\\x1fA\\xf5x-\\x11\\xff\\xd9">\'}, \'lat\': \'-27.453432\', \'lng\': \'-58.98057\', \'name\': \'San Francisco\', \'onClick\': {}}], default=None)'
p174
sg95
S'json'
p175
sa(dp176
g72
S'C:\\web2py\\gluon\\serializers.py'
p177
sg74
(dp178
S'default'
p179
S'<function custom_json>'
p180
sS'json_parser.dumps'
p181
S'<function dumps>'
p182
sS'global json_parser'
p183
S"<module 'json' from 'C:\\web2py\\library.zip\\json\\__init__.pyc'>"
p184
sS'value'
p185
S'[{\'cazada\': \'N\', \'icon\': r\'\\Chuwal\\static\\images\\PinRojo.png\', \'infoWindow\': {\'content\': \'<h1> HOLA</h1> <p><img src="\\xff\\xd8\\xff\\xe0\\x00\\x10JFIF\\x00\\x01\\x01\\x01\\x00`\\x00`\\x00\\x00...\\x04\\xa9\\x93T\\xd0\\xedfY\\xb5\\xa5\\x0c\\x99\\xff\\x00G\\xbf\\x99b\\xeaO\\xca\\x16\\x17^\\xfc\\xe1\\x98g<\\xe74QEx/\\x15U\\xbb\\xf3\\x1fA\\xf5x-\\x11\\xff\\xd9">\'}, \'lat\': \'-27.453432\', \'lng\': \'-58.98057\', \'name\': \'San Francisco\', \'onClick\': {}}]'
p186
ssg80
I137
sg81
(dp187
I132
S''
sI133
S'def json(value, default=custom_json):'
p188
sI134
S'    if decimal_false_option:'
p189
sI135
S'        value = json_parser.dumps(value, default=default, use_decimal=False)'
p190
sI136
S'    else:'
p191
sI137
S'        value = json_parser.dumps(value, default=default)'
p192
sI138
S''
sI139
S'    # replace JavaScript incompatible spacing'
p193
sI140
S'    # http://timelessrepo.com/json-isnt-a-javascript-subset'
p194
sI141
S"    return value.replace(ur'\\u2028', '\\\\u2028').replace(ur'\\2029', '\\\\u2029')"
p195
ssg93
S'(value=[{\'cazada\': \'N\', \'icon\': r\'\\Chuwal\\static\\images\\PinRojo.png\', \'infoWindow\': {\'content\': \'<h1> HOLA</h1> <p><img src="\\xff\\xd8\\xff\\xe0\\x00\\x10JFIF\\x00\\x01\\x01\\x01\\x00`\\x00`\\x00\\x00...\\x04\\xa9\\x93T\\xd0\\xedfY\\xb5\\xa5\\x0c\\x99\\xff\\x00G\\xbf\\x99b\\xeaO\\xca\\x16\\x17^\\xfc\\xe1\\x98g<\\xe74QEx/\\x15U\\xbb\\xf3\\x1fA\\xf5x-\\x11\\xff\\xd9">\'}, \'lat\': \'-27.453432\', \'lng\': \'-58.98057\', \'name\': \'San Francisco\', \'onClick\': {}}], default=<function custom_json>)'
p196
sg95
g175
sa(dp197
g72
S'C:\\web2py\\json\\__init__.py'
p198
sg74
(dp199
sg80
I250
sg81
(dp200
sg93
S'(obj=[{\'cazada\': \'N\', \'icon\': r\'\\Chuwal\\static\\images\\PinRojo.png\', \'infoWindow\': {\'content\': \'<h1> HOLA</h1> <p><img src="\\xff\\xd8\\xff\\xe0\\x00\\x10JFIF\\x00\\x01\\x01\\x01\\x00`\\x00`\\x00\\x00...\\x04\\xa9\\x93T\\xd0\\xedfY\\xb5\\xa5\\x0c\\x99\\xff\\x00G\\xbf\\x99b\\xeaO\\xca\\x16\\x17^\\xfc\\xe1\\x98g<\\xe74QEx/\\x15U\\xbb\\xf3\\x1fA\\xf5x-\\x11\\xff\\xd9">\'}, \'lat\': \'-27.453432\', \'lng\': \'-58.98057\', \'name\': \'San Francisco\', \'onClick\': {}}], skipkeys=False, ensure_ascii=True, check_circular=True, allow_nan=True, cls=<class \'json.encoder.JSONEncoder\'>, indent=None, separators=None, encoding=\'utf-8\', default=<function custom_json>, sort_keys=False, **kw={})'
p201
sg95
S'dumps'
p202
sa(dp203
g72
S'C:\\web2py\\json\\encoder.py'
p204
sg74
(dp205
sg80
I207
sg81
(dp206
sg93
S'(self=<json.encoder.JSONEncoder object>, o=[{\'cazada\': \'N\', \'icon\': r\'\\Chuwal\\static\\images\\PinRojo.png\', \'infoWindow\': {\'content\': \'<h1> HOLA</h1> <p><img src="\\xff\\xd8\\xff\\xe0\\x00\\x10JFIF\\x00\\x01\\x01\\x01\\x00`\\x00`\\x00\\x00...\\x04\\xa9\\x93T\\xd0\\xedfY\\xb5\\xa5\\x0c\\x99\\xff\\x00G\\xbf\\x99b\\xeaO\\xca\\x16\\x17^\\xfc\\xe1\\x98g<\\xe74QEx/\\x15U\\xbb\\xf3\\x1fA\\xf5x-\\x11\\xff\\xd9">\'}, \'lat\': \'-27.453432\', \'lng\': \'-58.98057\', \'name\': \'San Francisco\', \'onClick\': {}}])'
p207
sg95
S'encode'
p208
sa(dp209
g72
S'C:\\web2py\\json\\encoder.py'
p210
sg74
(dp211
sg80
I270
sg81
(dp212
sg93
S'(self=<json.encoder.JSONEncoder object>, o=[{\'cazada\': \'N\', \'icon\': r\'\\Chuwal\\static\\images\\PinRojo.png\', \'infoWindow\': {\'content\': \'<h1> HOLA</h1> <p><img src="\\xff\\xd8\\xff\\xe0\\x00\\x10JFIF\\x00\\x01\\x01\\x01\\x00`\\x00`\\x00\\x00...\\x04\\xa9\\x93T\\xd0\\xedfY\\xb5\\xa5\\x0c\\x99\\xff\\x00G\\xbf\\x99b\\xeaO\\xca\\x16\\x17^\\xfc\\xe1\\x98g<\\xe74QEx/\\x15U\\xbb\\xf3\\x1fA\\xf5x-\\x11\\xff\\xd9">\'}, \'lat\': \'-27.453432\', \'lng\': \'-58.98057\', \'name\': \'San Francisco\', \'onClick\': {}}], _one_shot=True)'
p213
sg95
S'iterencode'
p214
sasS'pyver'
p215
S'Python 2.7.9: C:\\web2py\\web2py.exe (prefix: )'
p216
sS'session'
p217
g67
(S's6\x01\x00\x00<div><table><tr><td style="font-weight:bold;vertical-align:top;">last_orderby</td><td style="vertical-align:top;">:</td><td><div>None</div></td></tr><tr><td style="font-weight:bold;vertical-align:top;">last_query</td><td style="vertical-align:top;">:</td><td><div>db.place.id&gt;0</div></td></tr></table></div>'
tRp218
sS'etype'
p219
S"<type 'exceptions.UnicodeDecodeError'>"
p220
sS'date'
p221
S'Tue Jun 21 12:01:57 2016'
p222
sS'response'
p223
g67
(S's\x19A\x00\x00<div><table><tr><td style="font-weight:bold;vertical-align:top;">body</td><td style="vertical-align:top;">:</td><td><div>&lt;cStringIO.StringO object at 0x04372240&gt;</div></td></tr><tr><td style="font-weight:bold;vertical-align:top;">cookies</td><td style="vertical-align:top;">:</td><td><div><table><tr><td style="font-weight:bold;vertical-align:top;">session_id_chuwaltest</td><td style="vertical-align:top;">:</td><td><div>127.0.0.1-27b61766-a24a-4859-a7ed-75ff1f688e7d<table><tr><td style="font-weight:bold;vertical-align:top;">comment</td><td style="vertical-align:top;">:</td><td><div></div></td></tr><tr><td style="font-weight:bold;vertical-align:top;">domain</td><td style="vertical-align:top;">:</td><td><div></div></td></tr><tr><td style="font-weight:bold;vertical-align:top;">expires</td><td style="vertical-align:top;">:</td><td><div></div></td></tr><tr><td style="font-weight:bold;vertical-align:top;">httponly</td><td style="vertical-align:top;">:</td><td><div></div></td></tr><tr><td style="font-weight:bold;vertical-align:top;">max-age</td><td style="vertical-align:top;">:</td><td><div></div></td></tr><tr><td style="font-weight:bold;vertical-align:top;">path</td><td style="vertical-align:top;">:</td><td><div>/</div></td></tr><tr><td style="font-weight:bold;vertical-align:top;">secure</td><td style="vertical-align:top;">:</td><td><div></div></td></tr><tr><td style="font-weight:bold;vertical-align:top;">version</td><td style="vertical-align:top;">:</td><td><div></div></td></tr></table></div></td></tr></table></div></td></tr><tr><td style="font-weight:bold;vertical-align:top;">delimiters</td><td style="vertical-align:top;">:</td><td><div><table><tr><td><div>{{</div></td></tr><tr><td><div>}}</div></td></tr></table></div></td></tr><tr><td style="font-weight:bold;vertical-align:top;">files</td><td style="vertical-align:top;">:</td><td><div><table></table></div></td></tr><tr><td style="font-weight:bold;vertical-align:top;">flash</td><td style="vertical-align:top;">:</td><td><div></div></td></tr><tr><td style="font-weight:bold;vertical-align:top;">form_label_separator</td><td style="vertical-align:top;">:</td><td><div></div></td></tr><tr><td style="font-weight:bold;vertical-align:top;">formstyle</td><td style="vertical-align:top;">:</td><td><div>bootstrap3_inline</div></td></tr><tr><td style="font-weight:bold;vertical-align:top;">generic_patterns</td><td style="vertical-align:top;">:</td><td><div><table><tr><td><div>*</div></td></tr></table></div></td></tr><tr><td style="font-weight:bold;vertical-align:top;">google_analytics_id</td><td style="vertical-align:top;">:</td><td><div>None</div></td></tr><tr><td style="font-weight:bold;vertical-align:top;">headers</td><td style="vertical-align:top;">:</td><td><div><table><tr><td style="font-weight:bold;vertical-align:top;">Content-Disposition</td><td style="vertical-align:top;">:</td><td><div>attachment; filename=16.jpg</div></td></tr><tr><td style="font-weight:bold;vertical-align:top;">Content-Type</td><td style="vertical-align:top;">:</td><td><div>image/jpeg</div></td></tr><tr><td style="font-weight:bold;vertical-align:top;">X-Powered-By</td><td style="vertical-align:top;">:</td><td><div>web2py</div></td></tr></table></div></td></tr><tr><td style="font-weight:bold;vertical-align:top;">logo</td><td style="vertical-align:top;">:</td><td><div><a class="navbar-brand" href="http://www.web2py.com/" id="web2py-logo"><b>web<span>2</span>py</b>&trade;&nbsp;</a></div></td></tr><tr><td style="font-weight:bold;vertical-align:top;">menu</td><td style="vertical-align:top;">:</td><td><div><table><tr><td><div><table><tr><td><div>Inicio</div></td></tr><tr><td><div>False</div></td></tr><tr><td><div>/ChuwalTest/default/index</div></td></tr><tr><td><div><table></table></div></td></tr></table></div></td></tr><tr><td><div><table><tr><td><div>Mis Sitios</div></td></tr><tr><td><div>False</div></td></tr><tr><td><div>/admin/default/site</div></td></tr></table></div></td></tr><tr><td><div><table><tr><td><div>Esta Aplicaci\xc3\xb3n</div></td></tr><tr><td><div>False</div></td></tr><tr><td><div>#</div></td></tr><tr><td><div><table><tr><td><div><table><tr><td><div>Design</div></td></tr><tr><td><div>False</div></td></tr><tr><td><div>/admin/default/design/ChuwalTest</div></td></tr></table></div></td></tr><tr><td><div><li class="divider"></li></div></td></tr><tr><td><div><table><tr><td><div>Controlador</div></td></tr><tr><td><div>False</div></td></tr><tr><td><div>/admin/default/edit/ChuwalTest/controllers/chuMap.py</div></td></tr></table></div></td></tr><tr><td><div><table><tr><td><div>Vista</div></td></tr><tr><td><div>False</div></td></tr><tr><td><div>/admin/default/edit/ChuwalTest/views/chuMap/getMarkers.html</div></td></tr></table></div></td></tr><tr><td><div><table><tr><td><div>Modelo BDD</div></td></tr><tr><td><div>False</div></td></tr><tr><td><div>/admin/default/edit/ChuwalTest/models/db.py</div></td></tr></table></div></td></tr><tr><td><div><table><tr><td><div>Modelo "menu"</div></td></tr><tr><td><div>False</div></td></tr><tr><td><div>/admin/default/edit/ChuwalTest/models/menu.py</div></td></tr></table></div></td></tr><tr><td><div><table><tr><td><div>Config.ini</div></td></tr><tr><td><div>False</div></td></tr><tr><td><div>/admin/default/edit/ChuwalTest/private/appconfig.ini</div></td></tr></table></div></td></tr><tr><td><div><table><tr><td><div>Dise\xc3\xb1o de p\xc3\xa1gina</div></td></tr><tr><td><div>False</div></td></tr><tr><td><div>/admin/default/edit/ChuwalTest/views/layout.html</div></td></tr></table></div></td></tr><tr><td><div><table><tr><td><div>Hoja de estilo</div></td></tr><tr><td><div>False</div></td></tr><tr><td><div>/admin/default/edit/ChuwalTest/static/css/web2py-bootstrap3.css</div></td></tr></table></div></td></tr><tr><td><div><table><tr><td><div>Base de datos</div></td></tr><tr><td><div>False</div></td></tr><tr><td><div>/ChuwalTest/appadmin/index</div></td></tr></table></div></td></tr><tr><td><div><table><tr><td><div>Errores</div></td></tr><tr><td><div>False</div></td></tr><tr><td><div>/admin/default/errors/ChuwalTest</div></td></tr></table></div></td></tr><tr><td><div><table><tr><td><div>Acerca de</div></td></tr><tr><td><div>False</div></td></tr><tr><td><div>/admin/default/about/ChuwalTest</div></td></tr></table></div></td></tr></table></div></td></tr></table></div></td></tr><tr><td><div><table><tr><td><div>web2py.com</div></td></tr><tr><td><div>False</div></td></tr><tr><td><div>#</div></td></tr><tr><td><div><table><tr><td><div><table><tr><td><div>Descargas</div></td></tr><tr><td><div>False</div></td></tr><tr><td><div>http://www.web2py.com/examples/default/download</div></td></tr></table></div></td></tr><tr><td><div><table><tr><td><div>Soporte</div></td></tr><tr><td><div>False</div></td></tr><tr><td><div>http://www.web2py.com/examples/default/support</div></td></tr></table></div></td></tr><tr><td><div><table><tr><td><div>Demostraci\xc3\xb3n</div></td></tr><tr><td><div>False</div></td></tr><tr><td><div>http://web2py.com/demo_admin</div></td></tr></table></div></td></tr><tr><td><div><table><tr><td><div>Ejemplos R\xc3\xa1pidos</div></td></tr><tr><td><div>False</div></td></tr><tr><td><div>http://web2py.com/examples/default/examples</div></td></tr></table></div></td></tr><tr><td><div><table><tr><td><div>FAQ</div></td></tr><tr><td><div>False</div></td></tr><tr><td><div>http://web2py.com/AlterEgo</div></td></tr></table></div></td></tr><tr><td><div><table><tr><td><div>V\xc3\xaddeos</div></td></tr><tr><td><div>False</div></td></tr><tr><td><div>http://www.web2py.com/examples/default/videos/</div></td></tr></table></div></td></tr><tr><td><div><table><tr><td><div>Aplicaciones Libres</div></td></tr><tr><td><div>False</div></td></tr><tr><td><div>http://web2py.com/appliances</div></td></tr></table></div></td></tr><tr><td><div><table><tr><td><div>Plugins</div></td></tr><tr><td><div>False</div></td></tr><tr><td><div>http://web2py.com/plugins</div></td></tr></table></div></td></tr><tr><td><div><table><tr><td><div>Recetas</div></td></tr><tr><td><div>False</div></td></tr><tr><td><div>http://web2pyslices.com/</div></td></tr></table></div></td></tr></table></div></td></tr></table></div></td></tr><tr><td><div><table><tr><td><div>Documentaci\xc3\xb3n</div></td></tr><tr><td><div>False</div></td></tr><tr><td><div>#</div></td></tr><tr><td><div><table><tr><td><div><table><tr><td><div>Online book</div></td></tr><tr><td><div>False</div></td></tr><tr><td><div>http://www.web2py.com/book</div></td></tr></table></div></td></tr><tr><td><div><li class="divider"></li></div></td></tr><tr><td><div><table><tr><td><div>Prefacio</div></td></tr><tr><td><div>False</div></td></tr><tr><td><div>http://www.web2py.com/book/default/chapter/00</div></td></tr></table></div></td></tr><tr><td><div><table><tr><td><div>Introducci\xc3\xb3n</div></td></tr><tr><td><div>False</div></td></tr><tr><td><div>http://www.web2py.com/book/default/chapter/01</div></td></tr></table></div></td></tr><tr><td><div><table><tr><td><div>Python</div></td></tr><tr><td><div>False</div></td></tr><tr><td><div>http://www.web2py.com/book/default/chapter/02</div></td></tr></table></div></td></tr><tr><td><div><table><tr><td><div>Resumen</div></td></tr><tr><td><div>False</div></td></tr><tr><td><div>http://www.web2py.com/book/default/chapter/03</div></td></tr></table></div></td></tr><tr><td><div><table><tr><td><div>El N\xc3\xbacleo</div></td></tr><tr><td><div>False</div></td></tr><tr><td><div>http://www.web2py.com/book/default/chapter/04</div></td></tr></table></div></td></tr><tr><td><div><table><tr><td><div>Las Vistas</div></td></tr><tr><td><div>False</div></td></tr><tr><td><div>http://www.web2py.com/book/default/chapter/05</div></td></tr></table></div></td></tr><tr><td><div><table><tr><td><div>Base de datos</div></td></tr><tr><td><div>False</div></td></tr><tr><td><div>http://www.web2py.com/book/default/chapter/06</div></td></tr></table></div></td></tr><tr><td><div><table><tr><td><div>Formularios y validadores</div></td></tr><tr><td><div>False</div></td></tr><tr><td><div>http://www.web2py.com/book/default/chapter/07</div></td></tr></table></div></td></tr><tr><td><div><table><tr><td><div>Correo electr\xc3\xb3nico y SMS</div></td></tr><tr><td><div>False</div></td></tr><tr><td><div>http://www.web2py.com/book/default/chapter/08</div></td></tr></table></div></td></tr><tr><td><div><table><tr><td><div>Control de Acceso</div></td></tr><tr><td><div>False</div></td></tr><tr><td><div>http://www.web2py.com/book/default/chapter/09</div></td></tr></table></div></td></tr><tr><td><div><table><tr><td><div>Servicios</div></td></tr><tr><td><div>False</div></td></tr><tr><td><div>http://www.web2py.com/book/default/chapter/10</div></td></tr></table></div></td></tr><tr><td><div><table><tr><td><div>Recetas AJAX</div></td></tr><tr><td><div>False</div></td></tr><tr><td><div>http://www.web2py.com/book/default/chapter/11</div></td></tr></table></div></td></tr><tr><td><div><table><tr><td><div>Componentes y Plugins</div></td></tr><tr><td><div>False</div></td></tr><tr><td><div>http://www.web2py.com/book/default/chapter/12</div></td></tr></table></div></td></tr><tr><td><div><table><tr><td><div>Recetas de despliegue</div></td></tr><tr><td><div>False</div></td></tr><tr><td><div>http://www.web2py.com/book/default/chapter/13</div></td></tr></table></div></td></tr><tr><td><div><table><tr><td><div>Otras Recetas</div></td></tr><tr><td><div>False</div></td></tr><tr><td><div>http://www.web2py.com/book/default/chapter/14</div></td></tr></table></div></td></tr><tr><td><div><table><tr><td><div>Helping web2py</div></td></tr><tr><td><div>False</div></td></tr><tr><td><div>http://www.web2py.com/book/default/chapter/15</div></td></tr></table></div></td></tr><tr><td><div><table><tr><td><div>Buy web2py\'s book</div></td></tr><tr><td><div>False</div></td></tr><tr><td><div>http://stores.lulu.com/web2py</div></td></tr></table></div></td></tr></table></div></td></tr></table></div></td></tr><tr><td><div><table><tr><td><div>Comunidad</div></td></tr><tr><td><div>False</div></td></tr><tr><td><div>None</div></td></tr><tr><td><div><table><tr><td><div><table><tr><td><div>Grupos</div></td></tr><tr><td><div>False</div></td></tr><tr><td><div>http://www.web2py.com/examples/default/usergroups</div></td></tr></table></div></td></tr><tr><td><div><table><tr><td><div>Twitter</div></td></tr><tr><td><div>False</div></td></tr><tr><td><div>http://twitter.com/web2py</div></td></tr></table></div></td></tr><tr><td><div><table><tr><td><div>Chat en vivo</div></td></tr><tr><td><div>False</div></td></tr><tr><td><div>http://webchat.freenode.net/?channels=web2py</div></td></tr></table></div></td></tr></table></div></td></tr></table></div></td></tr></table></div></td></tr><tr><td style="font-weight:bold;vertical-align:top;">meta</td><td style="vertical-align:top;">:</td><td><div><table><tr><td style="font-weight:bold;vertical-align:top;">author</td><td style="vertical-align:top;">:</td><td><div>Your Name &lt;you@example.com&gt;</div></td></tr><tr><td style="font-weight:bold;vertical-align:top;">description</td><td style="vertical-align:top;">:</td><td><div>a cool new app</div></td></tr><tr><td style="font-weight:bold;vertical-align:top;">generator</td><td style="vertical-align:top;">:</td><td><div>Web2py Web Framework</div></td></tr><tr><td style="font-weight:bold;vertical-align:top;">keywords</td><td style="vertical-align:top;">:</td><td><div><table><tr><td><div>web2py</div></td></tr><tr><td><div>python</div></td></tr><tr><td><div>framework</div></td></tr></table></div></td></tr></table></div></td></tr><tr><td style="font-weight:bold;vertical-align:top;">models_to_run</td><td style="vertical-align:top;">:</td><td><div><table><tr><td><div>^\\w+\\.py$</div></td></tr><tr><td><div>^chuMap/\\w+\\.py$</div></td></tr><tr><td><div>^chuMap/getMarkers/\\w+\\.py$</div></td></tr></table></div></td></tr><tr><td style="font-weight:bold;vertical-align:top;">postprocessing</td><td style="vertical-align:top;">:</td><td><div><table></table></div></td></tr><tr><td style="font-weight:bold;vertical-align:top;">session_client</td><td style="vertical-align:top;">:</td><td><div>127.0.0.1</div></td></tr><tr><td style="font-weight:bold;vertical-align:top;">session_cookie_compression_level</td><td style="vertical-align:top;">:</td><td><div>None</div></td></tr><tr><td style="font-weight:bold;vertical-align:top;">session_cookie_expires</td><td style="vertical-align:top;">:</td><td><div>None</div></td></tr><tr><td style="font-weight:bold;vertical-align:top;">session_data_name</td><td style="vertical-align:top;">:</td><td><div>session_data_chuwaltest</div></td></tr><tr><td style="font-weight:bold;vertical-align:top;">session_file</td><td style="vertical-align:top;">:</td><td><div>&lt;open file &#x27;C:\\\\web2py\\\\applications\\\\ChuwalTest\\\\sessions\\\\17b\\\\1f4\\\\127.0.0.1-27b61766-a24a-4859-a7ed-75ff1f688e7d&#x27;, mode &#x27;rb+&#x27; at 0x0428A230&gt;</div></td></tr><tr><td style="font-weight:bold;vertical-align:top;">session_filename</td><td style="vertical-align:top;">:</td><td><div>C:\\web2py\\applications\\ChuwalTest\\sessions\\127.0.0.1-27b61766-a24a-4859-a7ed-75ff1f688e7d</div></td></tr><tr><td style="font-weight:bold;vertical-align:top;">session_hash</td><td style="vertical-align:top;">:</td><td><div>d0473f10cf4d68ae371d78b106758771</div></td></tr><tr><td style="font-weight:bold;vertical-align:top;">session_id</td><td style="vertical-align:top;">:</td><td><div>127.0.0.1-27b61766-a24a-4859-a7ed-75ff1f688e7d</div></td></tr><tr><td style="font-weight:bold;vertical-align:top;">session_id_name</td><td style="vertical-align:top;">:</td><td><div>session_id_chuwaltest</div></td></tr><tr><td style="font-weight:bold;vertical-align:top;">session_locked</td><td style="vertical-align:top;">:</td><td><div>True</div></td></tr><tr><td style="font-weight:bold;vertical-align:top;">session_masterapp</td><td style="vertical-align:top;">:</td><td><div>ChuwalTest</div></td></tr><tr><td style="font-weight:bold;vertical-align:top;">session_new</td><td style="vertical-align:top;">:</td><td><div>False</div></td></tr><tr><td style="font-weight:bold;vertical-align:top;">session_storage_type</td><td style="vertical-align:top;">:</td><td><div>file</div></td></tr><tr><td style="font-weight:bold;vertical-align:top;">status</td><td style="vertical-align:top;">:</td><td><div>200</div></td></tr><tr><td style="font-weight:bold;vertical-align:top;">subtitle</td><td style="vertical-align:top;">:</td><td><div></div></td></tr><tr><td style="font-weight:bold;vertical-align:top;">title</td><td style="vertical-align:top;">:</td><td><div>Chuwaltest</div></td></tr><tr><td style="font-weight:bold;vertical-align:top;">view</td><td style="vertical-align:top;">:</td><td><div>chuMap/getMarkers.html</div></td></tr></table></div>'
tRp224
sS'locals'
p225
(dp226
S'_encoder'
p227
S'<built-in function encode_basestring_ascii>'
p228
sS'floatstr'
p229
S'<function floatstr>'
p230
sS'self'
p231
S'<json.encoder.JSONEncoder object>'
p232
sS'markers'
p233
S'{65510976: {\'cazada\': \'N\', \'icon\': r\'\\Chuwal\\static\\images\\PinRojo.png\', \'infoWindow\': {\'content\': \'<h1> HOLA</h1> <p><img src="\\xff\\xd8\\xff\\xe0\\x00\\x10JFIF\\x00\\x01\\x01\\x01\\x00`\\x00`\\x00\\x00...\\x04\\xa9\\x93T\\xd0\\xedfY\\xb5\\xa5\\x0c\\x99\\xff\\x00G\\xbf\\x99b\\xeaO\\xca\\x16\\x17^\\xfc\\xe1\\x98g<\\xe74QEx/\\x15U\\xbb\\xf3\\x1fA\\xf5x-\\x11\\xff\\xd9">\'}, \'lat\': \'-27.453432\', \'lng\': \'-58.98057\', \'name\': \'San Francisco\', \'onClick\': {}}, 69638592: {\'content\': \'<h1> HOLA</h1> <p><img src="\\xff\\xd8\\xff\\xe0\\x00\\x10JFIF\\x00\\x01\\x01\\x01\\x00`\\x00`\\x00\\x00...\\x04\\xa9\\x93T\\xd0\\xedfY\\xb5\\xa5\\x0c\\x99\\xff\\x00G\\xbf\\x99b\\xeaO\\xca\\x16\\x17^\\xfc\\xe1\\x98g<\\xe74QEx/\\x15U\\xbb\\xf3\\x1fA\\xf5x-\\x11\\xff\\xd9">\'}, 125699096: [{\'cazada\': \'N\', \'icon\': r\'\\Chuwal\\static\\images\\PinRojo.png\', \'infoWindow\': {\'content\': \'<h1> HOLA</h1> <p><img src="\\xff\\xd8\\xff\\xe0\\x00\\x10JFIF\\x00\\x01\\x01\\x01\\x00`\\x00`\\x00\\x00...\\x04\\xa9\\x93T\\xd0\\xedfY\\xb5\\xa5\\x0c\\x99\\xff\\x00G\\xbf\\x99b\\xeaO\\xca\\x16\\x17^\\xfc\\xe1\\x98g<\\xe74QEx/\\x15U\\xbb\\xf3\\x1fA\\xf5x-\\x11\\xff\\xd9">\'}, \'lat\': \'-27.453432\', \'lng\': \'-58.98057\', \'name\': \'San Francisco\', \'onClick\': {}}]}'
p234
sS'_one_shot'
p235
S'True'
p236
sS'o'
S'[{\'cazada\': \'N\', \'icon\': r\'\\Chuwal\\static\\images\\PinRojo.png\', \'infoWindow\': {\'content\': \'<h1> HOLA</h1> <p><img src="\\xff\\xd8\\xff\\xe0\\x00\\x10JFIF\\x00\\x01\\x01\\x01\\x00`\\x00`\\x00\\x00...\\x04\\xa9\\x93T\\xd0\\xedfY\\xb5\\xa5\\x0c\\x99\\xff\\x00G\\xbf\\x99b\\xeaO\\xca\\x16\\x17^\\xfc\\xe1\\x98g<\\xe74QEx/\\x15U\\xbb\\xf3\\x1fA\\xf5x-\\x11\\xff\\xd9">\'}, \'lat\': \'-27.453432\', \'lng\': \'-58.98057\', \'name\': \'San Francisco\', \'onClick\': {}}]'
p237
sS'_iterencode'
p238
S'<_json.Encoder object>'
p239
sssS'traceback'
p240
S'Traceback (most recent call last):\n  File "C:\\web2py\\gluon\\restricted.py", line 227, in restricted\n    exec ccode in environment\n  File "C:\\web2py\\applications\\ChuwalTest\\controllers/chuMap.py", line 63, in <module>\n  File "C:\\web2py\\gluon\\globals.py", line 417, in <lambda>\n    self._caller = lambda f: f()\n  File "C:\\web2py\\applications\\ChuwalTest\\controllers/chuMap.py", line 61, in getMarkers\n    return response.json(places)\n  File "C:\\web2py\\gluon\\globals.py", line 661, in json\n    return json(data, default=default or custom_json)\n  File "C:\\web2py\\gluon\\serializers.py", line 137, in json\n    value = json_parser.dumps(value, default=default)\n  File "json/__init__.py", line 250, in dumps\n  File "json/encoder.py", line 207, in encode\n  File "json/encoder.py", line 270, in iterencode\nUnicodeDecodeError: \'utf8\' codec can\'t decode byte 0xff in position 28: invalid start byte\n'
p241
s.