(dp1
S'output'
p2
S"<type 'exceptions.AttributeError'> 'NoneType' object has no attribute 'fileImageNHURL'"
p3
sS'layer'
p4
S'C:\\Users\\Informatorio\\Desktop\\web2py\\applications\\Chu\\views\\chuGame/chuHunt.html'
p5
sS'code'
p6
S'#extend \'layout.html\'\nresponse.write(\'\\r\\n\\r\\n<!DOCTYPE html>\\r\\n<!--[if (gt IE 9)|!(IE)]><!--> <html class="no-js" lang="\', escape=False)\nresponse.write(T.accepted_language or \'en\')\nresponse.write(\'"> <!--<![endif]-->\\r\\n  <head>\\r\\n    <meta charset="utf-8">\\r\\n    <!-- www.phpied.com/conditional-comments-block-downloads/ -->\\r\\n    <!-- Always force latest IE rendering engine\\r\\n         (even in intranet) & Chrome Frame\\r\\n         Remove this if you use the .htaccess -->\\r\\n    <meta http-equiv="X-UA-Compatible" content="IE=edge\', escape=False)\nresponse.write(not request.is_local and \',chrome=1\' or \'\')\nresponse.write(\'">\\r\\n    <!--  Mobile Viewport Fix\\r\\n          j.mp/mobileviewport & davidbcalhoun.com/2010/viewport-metatag\\r\\n          device-width: Occupy full width of the screen in its current orientation\\r\\n          initial-scale = 1.0 retains dimensions instead of zooming out if page height > device height\\r\\n          user-scalable = yes allows the user to zoom in -->\\r\\n    <meta name="viewport" content="width=device-width, initial-scale=1.0">\\r\\n    <title>Chuwal</title>\\r\\n    <!-- http://dev.w3.org/html5/markup/meta.name.html -->\\r\\n    <meta name="application-name" content="\', escape=False)\nresponse.write(request.application)\nresponse.write(\'">\\r\\n    <!-- Speaking of Google, don\\\'t forget to set your site up:\\r\\n         http://google.com/webmasters -->\\r\\n    <meta name="google-site-verification" content="">\\r\\n    <!-- Este es referecia al archivo css (controollervistaP.css) -->\\r\\n    <link rel="stylesheet" href="\', escape=False)\nresponse.write(URL(\'static\',\'css/chuCSS.css\'))\nresponse.write(\'"/> \\r\\n\\r\\n    <!-- Stylesheet de bootstrap -->\\r\\n\\r\\n    <!-- Versi\\xc3\\xb3n compilada y comprimida del CSS de Bootstrap -->\\r\\n    <link rel="stylesheet" href="//netdna.bootstrapcdn.com/bootstrap/3.1.0/css/bootstrap.min.css">\\r\\n     \\r\\n    <!-- Tema opcional -->\\r\\n    <link rel="stylesheet" href="//netdna.bootstrapcdn.com/bootstrap/3.1.0/css/bootstrap-theme.min.css">\\r\\n\\r\\n    <!-- Stylesheet de material disign -->\\r\\n    <link rel="stylesheet" href="https://fonts.googleapis.com/icon?family=Material+Icons">\\r\\n    <link rel="stylesheet" href="https://code.getmdl.io/1.1.3/material.indigo-pink.min.css">\\r\\n\\r\\n    <!-- FavIcon de la pagina, el jarrito en cada pestania -->\\r\\n    <link rel="icon" href="\', escape=False)\nresponse.write(URL(\'static\',\'images/ChuwalFanIco.png\'))\nresponse.write(\'">\\r\\n    <!-- All JavaScript at the bottom, except for Modernizr which enables\\r\\n         HTML5 elements & feature detects -->\\r\\n\\r\\n    <script src="\', escape=False)\nresponse.write(URL(\'static\',\'js/modernizr-2.8.3.min.js\'))\nresponse.write(\'"></script>\\r\\n    <!--[if lt IE 9]>\\r\\n        <script src="\', escape=False)\nresponse.write(URL(\'static\',\'js/respond-1.4.2.min.js\'))\nresponse.write(\'"></script>\\r\\n        <![endif]-->\\r\\n    <!-- Favicons -->\\r\\n    \', escape=False)\nresponse.write(\'<script type="text/javascript"><!--\\r\\n    // These variables are used by the web2py_ajax_init function in web2py_ajax.js (which is loaded below).\\r\\n    var w2p_ajax_confirm_message = "\', escape=False)\nresponse.write(T(\'Are you sure you want to delete this object?\'))\nresponse.write(\'";\\r\\n    var w2p_ajax_disable_with_message = "\', escape=False)\nresponse.write(T(\'Working...\'))\nresponse.write(\'";\\r\\n    var w2p_ajax_date_format = "\', escape=False)\nresponse.write(T(\'%Y-%m-%d\'))\nresponse.write(\'";\\r\\n    var w2p_ajax_datetime_format = "\', escape=False)\nresponse.write(T(\'%Y-%m-%d %H:%M:%S\'))\nresponse.write(\'";\\r\\n    var ajax_error_500 = \\\'\', escape=False)\nresponse.write(T.M(\'An error occured, please [[reload %s]] the page\') % URL(args=request.args, vars=request.get_vars))\nresponse.write("\'\\r\\n    //--></script>\\r\\n", escape=False)\nresponse.files.insert(0,URL(\'static\',\'js/jquery.js\'))\nresponse.files.insert(1,URL(\'static\',\'css/calendar.css\'))\nresponse.files.insert(2,URL(\'static\',\'js/calendar.js\'))\nresponse.files.insert(3,URL(\'static\',\'js/web2py.js\'))\nresponse.include_meta()\nresponse.include_files()\nresponse.write(\'\\r\\n\', escape=False)\nresponse.write(\' <!-- this includes jquery.js, calendar.js/.css and web2py.js -->\\r\\n    \', escape=False)\nresponse.write(\'\\r\\n    \', escape=False)\n# using sidebars need to know what sidebar you want to use\nmc0 = \'col-md-12\'\nmc1 = \'col-md-9\'\nmc2 = \'col-md-6\'\nleft_sidebar_enabled = globals().get(\'left_sidebar_enabled\', False)\nright_sidebar_enabled = globals().get(\'right_sidebar_enabled\', False)\nmiddle_column = {0: mc0, 1: mc1, 2: mc2}[\n(left_sidebar_enabled and 1 or 0)+(right_sidebar_enabled and 1 or 0)]\nresponse.write(\'\\r\\n\\r\\n    <style> [type="button"]\\r\\n    {\\r\\n        width:100%;\\r\\n        height:100%;\\r\\n        display:block;\\r\\n        background-color:transparent;\\r\\n        color:white;\\r\\n        border:none;\\r\\n        outline:none;\\r\\n    }\\r\\n\\r\\n    .logo{\\r\\n\\r\\n      margin: 10px 0;\\r\\n    }\\r\\n\\r\\n      .logo2{\\r\\n\\r\\n        margin: 5px 0;\\r\\n    }\\r\\n\\r\\n    </style>\\r\\n    \\r\\n    <style>\\r\\n      /* iPhone 4 ----------- */\\r\\n      @media only screen and (min-device-width : 320px) and (max-device-width : 480px) and (orientation : landscape) and (-webkit-min-device-pixel-ratio : 2) {\\r\\n        \', escape=False)\nresponse.write(\'\\r\\n        \', escape=False)\nresponse.write(\'\\r\\n      }\\r\\n\\r\\n      @media only screen and (min-device-width : 320px) and (max-device-width : 480px) and (orientation : portrait) and (-webkit-min-device-pixel-ratio : 2) {\\r\\n      /* Styles */\\r\\n      }\\r\\n    </style>\\r\\n\\r\\n  </head>\\r\\n\\r\\n  <body class="backgroundChu">\\r\\n\\r\\n  <!-- Barra de navegacion -->\\r\\n    <nav class="navbar navbar-default" role="navigation">\\r\\n      <div class="container-fluid" style="background-color:#B37E44;">\\r\\n        <div class="navbar-header">\\r\\n          <button class="navbar-toggle" data-toggle="collapse"\\r\\n          data-target=".navbar-ex1-collapse">\\r\\n            <span class="sr-only">Desplegar navegaci\\xc3\\xb3n</span>\\r\\n            <span class="icon-bar"></span>\\r\\n            <span class="icon-bar"></span>\\r\\n            <span class="icon-bar"></span>\\r\\n          </button>\\r\\n          <a class="navbar-brand">\\r\\n            <a href="\', escape=False)\nresponse.write(URL(\'chuInterface\',\'chuHome\'))\nresponse.write(\'">\\r\\n              <img class="logo" src=../static/images/chuwalBlanco.png width="130" height="31">\\r\\n             </a>\\r\\n          </a>\\r\\n        </div>\\r\\n        \\r\\n        <div class="collapse navbar-collapse navbar-ex1-collapse">\\r\\n         <ul class="nav navbar-nav navbar-right">\\r\\n           \\r\\n            \\r\\n\\r\\n            <!--Aca va el Perfil del Usuario, es solo una muestra de como quedaria despues hayq ue modificarlo-->\\r\\n            <button class="logo2" class="btn dropdown-toggle disable" style="background-color:#B37E44; color:#ffffff;" data-toggle="dropdown">\\r\\n              <big><b>WoWSuchApp</b></big>\\r\\n              <img src=../static/images/user.jpg width="32" height="32" class="img-circle">\\r\\n              <span class="caret"></span>\\r\\n            </button>\\r\\n             \\r\\n            <ul class="dropdown-menu" style="background-color:#F6E490;">\\r\\n              <li><a href="\', escape=False)\nresponse.write(URL(\'chuInterface\',\'chuProfile\'))\nresponse.write(\'">Perfil</a></li>\\r\\n              <li class="divider"></li>\\r\\n              <li><a href="\', escape=False)\nresponse.write(URL(\'chuInterface\',\'chuHelp\'))\nresponse.write(\'">Ayuda</a></li>\\r\\n              <li class="divider"></li>\\r\\n              <li><a href="\', escape=False)\nresponse.write(URL(\'chuInterface\',\'chuWelcome\'))\nresponse.write(\'">Cerrar Sesi\\xc3\\xb3n</a></li>\\r\\n            </ul>\\r\\n          </ul>\\r\\n        </div>\\r\\n      </div>\\r\\n    </nav>\\r\\n\\r\\n    \', escape=False)\nresponse.write(\'\\r\\n<html lang="es">\\r\\n<head>\\r\\n\\t<meta charset="utf-8">\\r\\n\\t<meta name="viewport" content="width=device-width, initial-scale=1, maximum-scale=1, user-scalable=no">\\r\\n\\t<link rel="stylesheet" href="\', escape=False)\nresponse.write(URL(\'static\',\'css/chuHunt.css\'))\nresponse.write(\'"/>\\r\\n\\t<title>Hunt</title>\\r\\n\\r\\n</head>\\r\\n<body>\\r\\n\\r\\n  \\t<div class="col-md-offset-2 col-xs-offset-1 col-xs-10 col-md-8 vcenter">\\r\\n\\r\\n\\t\\t<div class="row">  \\r\\n   \\t\\t\\t<div class="conteiner-fluid contenedor">\\r\\n    \\t\\t\\t<div class="row">\\r\\n      \\t\\t\\t\\t<div class="thumbnail caja">\\r\\n\\r\\n      \\t\\t\\t\\t\\t<img src="\', escape=False)\nresponse.write(sculp.fileImageNHURL)\nresponse.write(\'" width="200" height="200" class="imagen img-thumbnail" class="img-responsive" alt="Imagen responsive">\\r\\n\\r\\n      \\t\\t\\t\\t\\t\\t<div class="caption">\\r\\n\\t\\t\\t\\t\\t\\t\\t\\t<div class="wrap">\\r\\n\\t\\t\\t\\t\\t\\t\\t\\t\\t<center>\\r\\n\\r\\n\\t\\t\\t\\t\\t\\t\\t\\t\\t<h4><b>De qu\\xc3\\xa9 material est\\xc3\\xa1 hecho esta escultura?</b></h4><br>\\r\\n\\r\\n\\t\\t\\t\\t\\t\\t\\t\\t\\t<button style=\\\'width:250px;\\\' class="btn trivia" class="btn btn-default btn-responsive"><a href="#" style="color:#774111;">Pasto y Madera</a></button><br><br>\\r\\n\\r\\n\\t\\t\\t\\t\\t\\t\\t\\t\\t<button style=\\\'width:250px;\\\' class="btn trivia" class="btn btn-default btn-responsive"><a href="#" style="color:#774111;">Hierro y Pl\\xc3\\xa1stico</a></button><br><br>\\r\\n\\r\\n\\t\\t\\t\\t\\t\\t\\t\\t\\t<button style=\\\'width:250px;\\\' class="btn trivia"><a href="#" style="color:#774111;">Metal y Piedra</a></button><br><br>\\r\\n\\r\\n\\t\\t\\t\\t\\t\\t\\t\\t\\t<button style=\\\'width:250px;\\\' class="btn trivia"><a href="#" style="color:#774111;">Metal y Cemento</a></button><br><br>\\r\\n\\r\\n\\t\\t\\t\\t\\t\\t\\t\\r\\n\\t\\t\\t\\t\\t\\t\\t\\t\\t</center>\\r\\n\\t\\t\\t\\t\\t\\t\\t\\t\\t\\r\\n\\t\\t\\t\\t\\t\\t\\t\\t</div>\\r\\n\\t\\t\\t\\t\\t\\t\\t</div>\\r\\n\\t\\t\\t\\t\\t\\t\\t<center>\\r\\n\\r\\n\\t\\t\\t\\t\\t\\t\\t<button class="btn" style="background-color:transparent"><a href="\', escape=False)\nresponse.write(URL(\'chuGame\',\'chuList\'))\nresponse.write(\'"><img src="../static/images/atras.png" width=50 height=50 ></a>\\r\\n\\t\\t\\t\\t\\t\\t\\t</button>\\r\\n\\r\\n\\t\\t\\t\\t\\t\\t\\t</center>\\r\\n\\t\\t\\t\\t\\t\\t</div>\\r\\n\\r\\n\\t\\t\\t\\t\\t</div>\\r\\n\\t\\t\\t\\t</div>\\r\\n\\t\\t\\t</div>\\r\\n\\t\\t</div>\\r\\n\\t</div>\\r\\n</body>\\r\\n</html>\\r\\n\', escape=False)\nresponse.write(\'\\r\\n\\r\\n<!-- Librer\\xc3\\xada jQuery requerida por los plugins de JavaScript -->\\r\\n  <script src="http://code.jquery.com/jquery.js"></script>\\r\\n<!-- Versi\\xc3\\xb3n compilada y comprimida del JavaScript de Bootstrap -->\\r\\n    <script src="//netdna.bootstrapcdn.com/bootstrap/3.1.0/js/bootstrap.min.js"></script>\\r\\n  </body>\\r\\n\\r\\n</html>\', escape=False)'
p7
sS'snapshot'
p8
(dp9
S'exception'
p10
(dp11
S'__hash__'
p12
S"<method-wrapper '__hash__' of exceptions.AttributeError object>"
p13
sS'__setattr__'
p14
S"<method-wrapper '__setattr__' of exceptions.AttributeError object>"
p15
sS'__reduce_ex__'
p16
S'<built-in method __reduce_ex__ of exceptions.AttributeError object>'
p17
sS'__getslice__'
p18
S"<method-wrapper '__getslice__' of exceptions.AttributeError object>"
p19
sS'__getitem__'
p20
S"<method-wrapper '__getitem__' of exceptions.AttributeError object>"
p21
sS'__setstate__'
p22
S'<built-in method __setstate__ of exceptions.AttributeError object>'
p23
sS'__reduce__'
p24
S'<built-in method __reduce__ of exceptions.AttributeError object>'
p25
sS'__str__'
p26
S"<method-wrapper '__str__' of exceptions.AttributeError object>"
p27
sS'__format__'
p28
S'<built-in method __format__ of exceptions.AttributeError object>'
p29
sS'__getattribute__'
p30
S"<method-wrapper '__getattribute__' of exceptions.AttributeError object>"
p31
sS'__class__'
p32
S"<type 'exceptions.AttributeError'>"
p33
sS'__unicode__'
p34
S'<built-in method __unicode__ of exceptions.AttributeError object>'
p35
sS'__delattr__'
p36
S"<method-wrapper '__delattr__' of exceptions.AttributeError object>"
p37
sS'__subclasshook__'
p38
S'<built-in method __subclasshook__ of type object>'
p39
sS'__repr__'
p40
S"<method-wrapper '__repr__' of exceptions.AttributeError object>"
p41
sS'args'
p42
S'("\'NoneType\' object has no attribute \'fileImageNHURL\'",)'
p43
sS'__dict__'
p44
S'{}'
p45
sS'__sizeof__'
p46
S'<built-in method __sizeof__ of exceptions.AttributeError object>'
p47
sS'__doc__'
p48
S"'Attribute not found.'"
p49
sS'__init__'
p50
S"<method-wrapper '__init__' of exceptions.AttributeError object>"
p51
sS'__new__'
p52
S'<built-in method __new__ of type object>'
p53
ssS'evalue'
p54
S"'NoneType' object has no attribute 'fileImageNHURL'"
p55
sS'request'
p56
cgluon.html
XML_unpickle
p57
(S's\x1aP\x00\x00<div><table><tr><td style="font-weight:bold;vertical-align:top;">ajax</td><td style="vertical-align:top;">:</td><td><div>False</div></td></tr><tr><td style="font-weight:bold;vertical-align:top;">application</td><td style="vertical-align:top;">:</td><td><div>Chu</div></td></tr><tr><td style="font-weight:bold;vertical-align:top;">args</td><td style="vertical-align:top;">:</td><td><div><table></table></div></td></tr><tr><td style="font-weight:bold;vertical-align:top;">cid</td><td style="vertical-align:top;">:</td><td><div>None</div></td></tr><tr><td style="font-weight:bold;vertical-align:top;">client</td><td style="vertical-align:top;">:</td><td><div>127.0.0.1</div></td></tr><tr><td style="font-weight:bold;vertical-align:top;">controller</td><td style="vertical-align:top;">:</td><td><div>chuGame</div></td></tr><tr><td style="font-weight:bold;vertical-align:top;">cookies</td><td style="vertical-align:top;">:</td><td><div><table><tr><td style="font-weight:bold;vertical-align:top;">session_id_welcome</td><td style="vertical-align:top;">:</td><td><div>127.0.0.1-966ac48f-0d32-438e-ab5f-da425766114c<table><tr><td style="font-weight:bold;vertical-align:top;">comment</td><td style="vertical-align:top;">:</td><td><div></div></td></tr><tr><td style="font-weight:bold;vertical-align:top;">domain</td><td style="vertical-align:top;">:</td><td><div></div></td></tr><tr><td style="font-weight:bold;vertical-align:top;">expires</td><td style="vertical-align:top;">:</td><td><div></div></td></tr><tr><td style="font-weight:bold;vertical-align:top;">httponly</td><td style="vertical-align:top;">:</td><td><div></div></td></tr><tr><td style="font-weight:bold;vertical-align:top;">max-age</td><td style="vertical-align:top;">:</td><td><div></div></td></tr><tr><td style="font-weight:bold;vertical-align:top;">path</td><td style="vertical-align:top;">:</td><td><div></div></td></tr><tr><td style="font-weight:bold;vertical-align:top;">secure</td><td style="vertical-align:top;">:</td><td><div></div></td></tr><tr><td style="font-weight:bold;vertical-align:top;">version</td><td style="vertical-align:top;">:</td><td><div></div></td></tr></table></div></td></tr></table></div></td></tr><tr><td style="font-weight:bold;vertical-align:top;">env</td><td style="vertical-align:top;">:</td><td><div><table><tr><td style="font-weight:bold;vertical-align:top;">HTTP_ACCEPT</td><td style="vertical-align:top;">:</td><td><div>text/html,application/xhtml+xml,application/xml;q=0.9,image/webp,*/*;q=0.8</div></td></tr><tr><td style="font-weight:bold;vertical-align:top;">HTTP_ACCEPT_ENCODING</td><td style="vertical-align:top;">:</td><td><div>gzip, deflate, sdch</div></td></tr><tr><td style="font-weight:bold;vertical-align:top;">HTTP_ACCEPT_LANGUAGE</td><td style="vertical-align:top;">:</td><td><div>es-ES,es;q=0.8</div></td></tr><tr><td style="font-weight:bold;vertical-align:top;">HTTP_CONNECTION</td><td style="vertical-align:top;">:</td><td><div>keep-alive</div></td></tr><tr><td style="font-weight:bold;vertical-align:top;">HTTP_COOKIE</td><td style="vertical-align:top;">:</td><td><div>session_id_welcome=127.0.0.1-966ac48f-0d32-438e-ab5f-da425766114c</div></td></tr><tr><td style="font-weight:bold;vertical-align:top;">HTTP_HOST</td><td style="vertical-align:top;">:</td><td><div>127.0.0.1:8000</div></td></tr><tr><td style="font-weight:bold;vertical-align:top;">HTTP_UPGRADE_INSECURE_REQUESTS</td><td style="vertical-align:top;">:</td><td><div>1</div></td></tr><tr><td style="font-weight:bold;vertical-align:top;">HTTP_USER_AGENT</td><td style="vertical-align:top;">:</td><td><div>Mozilla/5.0 (Windows NT 6.1; Win64; x64) AppleWebKit/537.36 (KHTML, like Gecko) Chrome/51.0.2704.103 Safari/537.36</div></td></tr><tr><td style="font-weight:bold;vertical-align:top;">PATH_INFO</td><td style="vertical-align:top;">:</td><td><div>/Chu/chuGame/chuHunt.html</div></td></tr><tr><td style="font-weight:bold;vertical-align:top;">QUERY_STRING</td><td style="vertical-align:top;">:</td><td><div></div></td></tr><tr><td style="font-weight:bold;vertical-align:top;">REMOTE_ADDR</td><td style="vertical-align:top;">:</td><td><div>127.0.0.1</div></td></tr><tr><td style="font-weight:bold;vertical-align:top;">REMOTE_PORT</td><td style="vertical-align:top;">:</td><td><div>1626</div></td></tr><tr><td style="font-weight:bold;vertical-align:top;">REQUEST_METHOD</td><td style="vertical-align:top;">:</td><td><div>GET</div></td></tr><tr><td style="font-weight:bold;vertical-align:top;">SCRIPT_NAME</td><td style="vertical-align:top;">:</td><td><div></div></td></tr><tr><td style="font-weight:bold;vertical-align:top;">SERVER_NAME</td><td style="vertical-align:top;">:</td><td><div>Informatorio-PC</div></td></tr><tr><td style="font-weight:bold;vertical-align:top;">SERVER_PORT</td><td style="vertical-align:top;">:</td><td><div>8000</div></td></tr><tr><td style="font-weight:bold;vertical-align:top;">SERVER_PROTOCOL</td><td style="vertical-align:top;">:</td><td><div>HTTP/1.1</div></td></tr><tr><td style="font-weight:bold;vertical-align:top;">SERVER_SOFTWARE</td><td style="vertical-align:top;">:</td><td><div>Rocket 1.2.6</div></td></tr><tr><td style="font-weight:bold;vertical-align:top;">app_folders</td><td style="vertical-align:top;">:</td><td><div>set([&#x27;C:\\\\Users\\\\Informatorio\\\\Desktop\\\\web2py\\\\applications\\\\Chu\\\\&#x27;, &#x27;C:\\\\Users\\\\Informatorio\\\\Desktop\\\\web2py\\\\applications\\\\welcome\\\\&#x27;])</div></td></tr><tr><td style="font-weight:bold;vertical-align:top;">applications_parent</td><td style="vertical-align:top;">:</td><td><div>C:\\Users\\Informatorio\\Desktop\\web2py</div></td></tr><tr><td style="font-weight:bold;vertical-align:top;">cmd_args</td><td style="vertical-align:top;">:</td><td><div><table></table></div></td></tr><tr><td style="font-weight:bold;vertical-align:top;">cmd_options</td><td style="vertical-align:top;">:</td><td><div>&lt;Values at 0x30a60f8: {&#x27;verbose&#x27;: False, &#x27;ip&#x27;: &#x27;127.0.0.1&#x27;, &#x27;debuglevel&#x27;: 30, &#x27;with_scheduler&#x27;: False, &#x27;shutdown_timeout&#x27;: 5, &#x27;taskbar&#x27;: False, &#x27;with_coverage&#x27;: False, &#x27;pid_filename&#x27;: &#x27;httpserver.pid&#x27;, &#x27;maxthreads&#x27;: None, &#x27;softcron&#x27;: False, &#x27;server_name&#x27;: &#x27;Informatorio-PC&#x27;, &#x27;bpython&#x27;: False, &#x27;nogui&#x27;: False, &#x27;port&#x27;: 8000, &#x27;print_errors&#x27;: False, &#x27;extcron&#x27;: False, &#x27;runcron&#x27;: False, &#x27;run_system_tests&#x27;: False, &#x27;test&#x27;: None, &#x27;folder&#x27;: &#x27;C:\\\\Users\\\\Informatorio\\\\Desktop\\\\web2py&#x27;, &#x27;config&#x27;: &#x27;&#x27;, &#x27;minthreads&#x27;: None, &#x27;shell&#x27;: None, &#x27;run&#x27;: &#x27;&#x27;, &#x27;log_filename&#x27;: &#x27;httpserver.log&#x27;, &#x27;profiler_dir&#x27;: None, &#x27;args&#x27;: [&#x27;&#x27;], &#x27;socket_timeout&#x27;: 5, &#x27;ssl_ca_certificate&#x27;: None, &#x27;scheduler&#x27;: None, &#x27;interfaces&#x27;: None, &#x27;ssl_private_key&#x27;: &#x27;&#x27;, &#x27;gae&#x27;: None, &#x27;password&#x27;: &#x27;******&#x27;, &#x27;request_queue_size&#x27;: 5, &#x27;ssl_certificate&#x27;: &#x27;&#x27;, &#x27;cronjob&#x27;: False, &#x27;numthreads&#x27;: None, &#x27;quiet&#x27;: False, &#x27;import_models&#x27;: False, &#x27;timeout&#x27;: 10, &#x27;plain&#x27;: False, &#x27;nobanner&#x27;: False}&gt;</div></td></tr><tr><td style="font-weight:bold;vertical-align:top;">db_sessions</td><td style="vertical-align:top;">:</td><td><div>set([])</div></td></tr><tr><td style="font-weight:bold;vertical-align:top;">debugging</td><td style="vertical-align:top;">:</td><td><div>False</div></td></tr><tr><td style="font-weight:bold;vertical-align:top;">gluon_parent</td><td style="vertical-align:top;">:</td><td><div>C:\\Users\\Informatorio\\Desktop\\web2py</div></td></tr><tr><td style="font-weight:bold;vertical-align:top;">http_accept</td><td style="vertical-align:top;">:</td><td><div>text/html,application/xhtml+xml,application/xml;q=0.9,image/webp,*/*;q=0.8</div></td></tr><tr><td style="font-weight:bold;vertical-align:top;">http_accept_encoding</td><td style="vertical-align:top;">:</td><td><div>gzip, deflate, sdch</div></td></tr><tr><td style="font-weight:bold;vertical-align:top;">http_accept_language</td><td style="vertical-align:top;">:</td><td><div>es-ES,es;q=0.8</div></td></tr><tr><td style="font-weight:bold;vertical-align:top;">http_connection</td><td style="vertical-align:top;">:</td><td><div>keep-alive</div></td></tr><tr><td style="font-weight:bold;vertical-align:top;">http_cookie</td><td style="vertical-align:top;">:</td><td><div>session_id_welcome=127.0.0.1-966ac48f-0d32-438e-ab5f-da425766114c</div></td></tr><tr><td style="font-weight:bold;vertical-align:top;">http_host</td><td style="vertical-align:top;">:</td><td><div>127.0.0.1:8000</div></td></tr><tr><td style="font-weight:bold;vertical-align:top;">http_upgrade_insecure_requests</td><td style="vertical-align:top;">:</td><td><div>1</div></td></tr><tr><td style="font-weight:bold;vertical-align:top;">http_user_agent</td><td style="vertical-align:top;">:</td><td><div>Mozilla/5.0 (Windows NT 6.1; Win64; x64) AppleWebKit/537.36 (KHTML, like Gecko) Chrome/51.0.2704.103 Safari/537.36</div></td></tr><tr><td style="font-weight:bold;vertical-align:top;">is_jython</td><td style="vertical-align:top;">:</td><td><div>False</div></td></tr><tr><td style="font-weight:bold;vertical-align:top;">is_pypy</td><td style="vertical-align:top;">:</td><td><div>False</div></td></tr><tr><td style="font-weight:bold;vertical-align:top;">is_source</td><td style="vertical-align:top;">:</td><td><div>False</div></td></tr><tr><td style="font-weight:bold;vertical-align:top;">local_hosts</td><td style="vertical-align:top;">:</td><td><div><table><tr><td><div>Informatorio-PC</div></td></tr><tr><td><div>::ffff:127.0.0.1</div></td></tr><tr><td><div>::1</div></td></tr><tr><td><div>192.168.10.86</div></td></tr><tr><td><div>fe80::299b:579e:de80:f86a%10</div></td></tr><tr><td><div>127.0.0.1</div></td></tr></table></div></td></tr><tr><td style="font-weight:bold;vertical-align:top;">path_info</td><td style="vertical-align:top;">:</td><td><div>/Chu/chuGame/chuHunt.html</div></td></tr><tr><td style="font-weight:bold;vertical-align:top;">query_string</td><td style="vertical-align:top;">:</td><td><div></div></td></tr><tr><td style="font-weight:bold;vertical-align:top;">remote_addr</td><td style="vertical-align:top;">:</td><td><div>127.0.0.1</div></td></tr><tr><td style="font-weight:bold;vertical-align:top;">remote_port</td><td style="vertical-align:top;">:</td><td><div>1626</div></td></tr><tr><td style="font-weight:bold;vertical-align:top;">request_method</td><td style="vertical-align:top;">:</td><td><div>GET</div></td></tr><tr><td style="font-weight:bold;vertical-align:top;">request_uri</td><td style="vertical-align:top;">:</td><td><div>/Chu/chuGame/chuHunt.html</div></td></tr><tr><td style="font-weight:bold;vertical-align:top;">script_name</td><td style="vertical-align:top;">:</td><td><div></div></td></tr><tr><td style="font-weight:bold;vertical-align:top;">server_name</td><td style="vertical-align:top;">:</td><td><div>Informatorio-PC</div></td></tr><tr><td style="font-weight:bold;vertical-align:top;">server_port</td><td style="vertical-align:top;">:</td><td><div>8000</div></td></tr><tr><td style="font-weight:bold;vertical-align:top;">server_protocol</td><td style="vertical-align:top;">:</td><td><div>HTTP/1.1</div></td></tr><tr><td style="font-weight:bold;vertical-align:top;">server_software</td><td style="vertical-align:top;">:</td><td><div>Rocket 1.2.6</div></td></tr><tr><td style="font-weight:bold;vertical-align:top;">web2py_path</td><td style="vertical-align:top;">:</td><td><div>C:\\Users\\Informatorio\\Desktop\\web2py</div></td></tr><tr><td style="font-weight:bold;vertical-align:top;">web2py_version</td><td style="vertical-align:top;">:</td><td><div>2.14.6-stable+timestamp.2016.05.10.00.21.47</div></td></tr><tr><td style="font-weight:bold;vertical-align:top;">wsgi.errors</td><td style="vertical-align:top;">:</td><td><div>&lt;open file &#x27;&lt;stderr&gt;&#x27;, mode &#x27;w&#x27; at 0x01D1D0D0&gt;</div></td></tr><tr><td style="font-weight:bold;vertical-align:top;">wsgi.file_wrapper</td><td style="vertical-align:top;">:</td><td><div>&lt;class wsgiref.util.FileWrapper at 0x0332B068&gt;</div></td></tr><tr><td style="font-weight:bold;vertical-align:top;">wsgi.input</td><td style="vertical-align:top;">:</td><td><div>&lt;socket._fileobject object at 0x030AF630&gt;</div></td></tr><tr><td style="font-weight:bold;vertical-align:top;">wsgi.multiprocess</td><td style="vertical-align:top;">:</td><td><div>False</div></td></tr><tr><td style="font-weight:bold;vertical-align:top;">wsgi.multithread</td><td style="vertical-align:top;">:</td><td><div>True</div></td></tr><tr><td style="font-weight:bold;vertical-align:top;">wsgi.run_once</td><td style="vertical-align:top;">:</td><td><div>False</div></td></tr><tr><td style="font-weight:bold;vertical-align:top;">wsgi.url_scheme</td><td style="vertical-align:top;">:</td><td><div>http</div></td></tr><tr><td style="font-weight:bold;vertical-align:top;">wsgi.version</td><td style="vertical-align:top;">:</td><td><div><table><tr><td><div>1</div></td></tr><tr><td><div>0</div></td></tr></table></div></td></tr><tr><td style="font-weight:bold;vertical-align:top;">wsgi_errors</td><td style="vertical-align:top;">:</td><td><div>&lt;open file &#x27;&lt;stderr&gt;&#x27;, mode &#x27;w&#x27; at 0x01D1D0D0&gt;</div></td></tr><tr><td style="font-weight:bold;vertical-align:top;">wsgi_file_wrapper</td><td style="vertical-align:top;">:</td><td><div>&lt;class wsgiref.util.FileWrapper at 0x0332B068&gt;</div></td></tr><tr><td style="font-weight:bold;vertical-align:top;">wsgi_input</td><td style="vertical-align:top;">:</td><td><div>&lt;socket._fileobject object at 0x030AF630&gt;</div></td></tr><tr><td style="font-weight:bold;vertical-align:top;">wsgi_multiprocess</td><td style="vertical-align:top;">:</td><td><div>False</div></td></tr><tr><td style="font-weight:bold;vertical-align:top;">wsgi_multithread</td><td style="vertical-align:top;">:</td><td><div>True</div></td></tr><tr><td style="font-weight:bold;vertical-align:top;">wsgi_run_once</td><td style="vertical-align:top;">:</td><td><div>False</div></td></tr><tr><td style="font-weight:bold;vertical-align:top;">wsgi_url_scheme</td><td style="vertical-align:top;">:</td><td><div>http</div></td></tr><tr><td style="font-weight:bold;vertical-align:top;">wsgi_version</td><td style="vertical-align:top;">:</td><td><div><table><tr><td><div>1</div></td></tr><tr><td><div>0</div></td></tr></table></div></td></tr></table></div></td></tr><tr><td style="font-weight:bold;vertical-align:top;">extension</td><td style="vertical-align:top;">:</td><td><div>html</div></td></tr><tr><td style="font-weight:bold;vertical-align:top;">folder</td><td style="vertical-align:top;">:</td><td><div>C:\\Users\\Informatorio\\Desktop\\web2py\\applications\\Chu\\</div></td></tr><tr><td style="font-weight:bold;vertical-align:top;">function</td><td style="vertical-align:top;">:</td><td><div>chuHunt</div></td></tr><tr><td style="font-weight:bold;vertical-align:top;">global_settings</td><td style="vertical-align:top;">:</td><td><div><table><tr><td style="font-weight:bold;vertical-align:top;">app_folders</td><td style="vertical-align:top;">:</td><td><div>set([&#x27;C:\\\\Users\\\\Informatorio\\\\Desktop\\\\web2py\\\\applications\\\\Chu\\\\&#x27;, &#x27;C:\\\\Users\\\\Informatorio\\\\Desktop\\\\web2py\\\\applications\\\\welcome\\\\&#x27;])</div></td></tr><tr><td style="font-weight:bold;vertical-align:top;">applications_parent</td><td style="vertical-align:top;">:</td><td><div>C:\\Users\\Informatorio\\Desktop\\web2py</div></td></tr><tr><td style="font-weight:bold;vertical-align:top;">cmd_args</td><td style="vertical-align:top;">:</td><td><div><table></table></div></td></tr><tr><td style="font-weight:bold;vertical-align:top;">cmd_options</td><td style="vertical-align:top;">:</td><td><div>&lt;Values at 0x30a60f8: {&#x27;verbose&#x27;: False, &#x27;ip&#x27;: &#x27;127.0.0.1&#x27;, &#x27;debuglevel&#x27;: 30, &#x27;with_scheduler&#x27;: False, &#x27;shutdown_timeout&#x27;: 5, &#x27;taskbar&#x27;: False, &#x27;with_coverage&#x27;: False, &#x27;pid_filename&#x27;: &#x27;httpserver.pid&#x27;, &#x27;maxthreads&#x27;: None, &#x27;softcron&#x27;: False, &#x27;server_name&#x27;: &#x27;Informatorio-PC&#x27;, &#x27;bpython&#x27;: False, &#x27;nogui&#x27;: False, &#x27;port&#x27;: 8000, &#x27;print_errors&#x27;: False, &#x27;extcron&#x27;: False, &#x27;runcron&#x27;: False, &#x27;run_system_tests&#x27;: False, &#x27;test&#x27;: None, &#x27;folder&#x27;: &#x27;C:\\\\Users\\\\Informatorio\\\\Desktop\\\\web2py&#x27;, &#x27;config&#x27;: &#x27;&#x27;, &#x27;minthreads&#x27;: None, &#x27;shell&#x27;: None, &#x27;run&#x27;: &#x27;&#x27;, &#x27;log_filename&#x27;: &#x27;httpserver.log&#x27;, &#x27;profiler_dir&#x27;: None, &#x27;args&#x27;: [&#x27;&#x27;], &#x27;socket_timeout&#x27;: 5, &#x27;ssl_ca_certificate&#x27;: None, &#x27;scheduler&#x27;: None, &#x27;interfaces&#x27;: None, &#x27;ssl_private_key&#x27;: &#x27;&#x27;, &#x27;gae&#x27;: None, &#x27;password&#x27;: &#x27;******&#x27;, &#x27;request_queue_size&#x27;: 5, &#x27;ssl_certificate&#x27;: &#x27;&#x27;, &#x27;cronjob&#x27;: False, &#x27;numthreads&#x27;: None, &#x27;quiet&#x27;: False, &#x27;import_models&#x27;: False, &#x27;timeout&#x27;: 10, &#x27;plain&#x27;: False, &#x27;nobanner&#x27;: False}&gt;</div></td></tr><tr><td style="font-weight:bold;vertical-align:top;">db_sessions</td><td style="vertical-align:top;">:</td><td><div>set([])</div></td></tr><tr><td style="font-weight:bold;vertical-align:top;">debugging</td><td style="vertical-align:top;">:</td><td><div>False</div></td></tr><tr><td style="font-weight:bold;vertical-align:top;">gluon_parent</td><td style="vertical-align:top;">:</td><td><div>C:\\Users\\Informatorio\\Desktop\\web2py</div></td></tr><tr><td style="font-weight:bold;vertical-align:top;">is_jython</td><td style="vertical-align:top;">:</td><td><div>False</div></td></tr><tr><td style="font-weight:bold;vertical-align:top;">is_pypy</td><td style="vertical-align:top;">:</td><td><div>False</div></td></tr><tr><td style="font-weight:bold;vertical-align:top;">is_source</td><td style="vertical-align:top;">:</td><td><div>False</div></td></tr><tr><td style="font-weight:bold;vertical-align:top;">local_hosts</td><td style="vertical-align:top;">:</td><td><div><table><tr><td><div>Informatorio-PC</div></td></tr><tr><td><div>::ffff:127.0.0.1</div></td></tr><tr><td><div>::1</div></td></tr><tr><td><div>192.168.10.86</div></td></tr><tr><td><div>fe80::299b:579e:de80:f86a%10</div></td></tr><tr><td><div>127.0.0.1</div></td></tr></table></div></td></tr><tr><td style="font-weight:bold;vertical-align:top;">web2py_version</td><td style="vertical-align:top;">:</td><td><div>2.14.6-stable+timestamp.2016.05.10.00.21.47</div></td></tr></table></div></td></tr><tr><td style="font-weight:bold;vertical-align:top;">is_https</td><td style="vertical-align:top;">:</td><td><div>False</div></td></tr><tr><td style="font-weight:bold;vertical-align:top;">is_local</td><td style="vertical-align:top;">:</td><td><div>True</div></td></tr><tr><td style="font-weight:bold;vertical-align:top;">is_restful</td><td style="vertical-align:top;">:</td><td><div>False</div></td></tr><tr><td style="font-weight:bold;vertical-align:top;">is_scheduler</td><td style="vertical-align:top;">:</td><td><div>False</div></td></tr><tr><td style="font-weight:bold;vertical-align:top;">is_shell</td><td style="vertical-align:top;">:</td><td><div>False</div></td></tr><tr><td style="font-weight:bold;vertical-align:top;">now</td><td style="vertical-align:top;">:</td><td><div>datetime.datetime(2016, 7, 13, 9, 14, 1, 668000)</div></td></tr><tr><td style="font-weight:bold;vertical-align:top;">raw_args</td><td style="vertical-align:top;">:</td><td><div></div></td></tr><tr><td style="font-weight:bold;vertical-align:top;">raw_extension</td><td style="vertical-align:top;">:</td><td><div>html</div></td></tr><tr><td style="font-weight:bold;vertical-align:top;">url</td><td style="vertical-align:top;">:</td><td><div>/Chu/chuGame/chuHunt.html</div></td></tr><tr><td style="font-weight:bold;vertical-align:top;">utcnow</td><td style="vertical-align:top;">:</td><td><div>datetime.datetime(2016, 7, 13, 12, 14, 1, 668000)</div></td></tr><tr><td style="font-weight:bold;vertical-align:top;">wsgi</td><td style="vertical-align:top;">:</td><td><div>&lt;gluon.main.LazyWSGI object at 0x041C6070&gt;</div></td></tr></table></div>'
tRp58
sS'frames'
p59
(lp60
(dp61
S'file'
p62
S'C:\\Users\\Informatorio\\Desktop\\web2py\\gluon\\restricted.py'
p63
sS'dump'
p64
(dp65
S'environment'
p66
S"{'A': <class 'gluon.html.A'>, 'ANY_OF': <class 'gluon.validators.ANY_OF'>, 'ASSIGNJS': <function ASSIGNJS>, 'AppConfig': <function AppConfig>, 'Auth': <class 'gluon.tools.Auth'>, 'B': <class 'gluon.html.B'>, 'BEAUTIFY': <class 'gluon.html.BEAUTIFY'>, 'BODY': <class 'gluon.html.BODY'>, 'BR': <class 'gluon.html.BR'>, 'BUTTON': <class 'gluon.html.BUTTON'>, ...}"
p67
sS'ccode'
p68
S'<code object <module> at 03F0F218, file "C:\\User...ications\\Chu\\views\\chuGame/chuHunt.html", line 2>'
p69
ssS'lnum'
p70
I227
sS'lines'
p71
(dp72
I224
S'            ccode = code'
p73
sI225
S'        else:'
p74
sI226
S'            ccode = compile2(code, layer)'
p75
sI227
S'        exec ccode in environment'
p76
sI228
S'    except HTTP:'
p77
sI229
S'        raise'
p78
sI230
S'    except RestrictedError:'
p79
sI231
S'        # do not encapsulate (obfuscate) the original RestrictedError'
p80
sI222
S'    try:'
p81
sI223
S'        if isinstance(code, types.CodeType):'
p82
ssS'call'
p83
S'(code="#extend \'layout.html\'\\nresponse.write(\'\\\\r\\\\n\\\\r\\\\n<!...ript>\\\\r\\\\n  </body>\\\\r\\\\n\\\\r\\\\n</html>\', escape=False)", environment={\'A\': <class \'gluon.html.A\'>, \'ANY_OF\': <class \'gluon.validators.ANY_OF\'>, \'ASSIGNJS\': <function ASSIGNJS>, \'AppConfig\': <function AppConfig>, \'Auth\': <class \'gluon.tools.Auth\'>, \'B\': <class \'gluon.html.B\'>, \'BEAUTIFY\': <class \'gluon.html.BEAUTIFY\'>, \'BODY\': <class \'gluon.html.BODY\'>, \'BR\': <class \'gluon.html.BR\'>, \'BUTTON\': <class \'gluon.html.BUTTON\'>, ...}, layer=r\'C:\\Users\\Informatorio\\Desktop\\web2py\\applications\\Chu\\views\\chuGame/chuHunt.html\')'
p84
sS'func'
p85
S'restricted'
p86
sa(dp87
g62
S'C:\\Users\\Informatorio\\Desktop\\web2py\\applications\\Chu\\views\\chuGame\\chuHunt.html'
p88
sg64
(dp89
sg70
I59
sg71
(dp90
I50
S"response.write(URL('chuInterface','chuProfile'))"
p91
sI51
S'response.write(\'">Perfil</a></li>\\r\\n              <li class="divider"></li>\\r\\n              <li><a href="\', escape=False)'
p92
sI52
S"response.write(URL('chuInterface','chuHelp'))"
p93
sI53
S'response.write(\'">Ayuda</a></li>\\r\\n              <li class="divider"></li>\\r\\n              <li><a href="\', escape=False)'
p94
sI54
S"response.write(URL('chuInterface','chuWelcome'))"
p95
sI55
S'response.write(\'">Cerrar Sesi\\xc3\\xb3n</a></li>\\r\\n            </ul>\\r\\n          </ul>\\r\\n        </div>\\r\\n      </div>\\r\\n    </nav>\\r\\n\\r\\n    \', escape=False)'
p96
sI56
S'response.write(\'\\r\\n<html lang="es">\\r\\n<head>\\r\\n\\t<meta charset="utf-8">\\r\\n\\t<meta name="viewport" content="width=device-width, initial-scale=1, maximum-scale=1, user-scalable=no">\\r\\n\\t<link rel="stylesheet" href="\', escape=False)'
p97
sI57
S"response.write(URL('static','css/chuHunt.css'))"
p98
sI58
S'response.write(\'"/>\\r\\n\\t<title>Hunt</title>\\r\\n\\r\\n</head>\\r\\n<body>\\r\\n\\r\\n  \\t<div class="col-md-offset-2 col-xs-offset-1 col-xs-10 col-md-8 vcenter">\\r\\n\\r\\n\\t\\t<div class="row">  \\r\\n   \\t\\t\\t<div class="conteiner-fluid contenedor">\\r\\n    \\t\\t\\t<div class="row">\\r\\n      \\t\\t\\t\\t<div class="thumbnail caja">\\r\\n\\r\\n      \\t\\t\\t\\t\\t<img src="\', escape=False)'
p99
sI59
S'response.write(sculp.fileImageNHURL)'
p100
sI60
S'response.write(\'" width="200" height="200" class="imagen img-thumbnail" class="img-responsive" alt="Imagen responsive">\\r\\n\\r\\n      \\t\\t\\t\\t\\t\\t<div class="caption">\\r\\n\\t\\t\\t\\t\\t\\t\\t\\t<div class="wrap">\\r\\n\\t\\t\\t\\t\\t\\t\\t\\t\\t<center>\\r\\n\\r\\n\\t\\t\\t\\t\\t\\t\\t\\t\\t<h4><b>De qu\\xc3\\xa9 material est\\xc3\\xa1 hecho esta escultura?</b></h4><br>\\r\\n\\r\\n\\t\\t\\t\\t\\t\\t\\t\\t\\t<button style=\\\'width:250px;\\\' class="btn trivia" class="btn btn-default btn-responsive"><a href="#" style="color:#774111;">Pasto y Madera</a></button><br><br>\\r\\n\\r\\n\\t\\t\\t\\t\\t\\t\\t\\t\\t<button style=\\\'width:250px;\\\' class="btn trivia" class="btn btn-default btn-responsive"><a href="#" style="color:#774111;">Hierro y Pl\\xc3\\xa1stico</a></button><br><br>\\r\\n\\r\\n\\t\\t\\t\\t\\t\\t\\t\\t\\t<button style=\\\'width:250px;\\\' class="btn trivia"><a href="#" style="color:#774111;">Metal y Piedra</a></button><br><br>\\r\\n\\r\\n\\t\\t\\t\\t\\t\\t\\t\\t\\t<button style=\\\'width:250px;\\\' class="btn trivia"><a href="#" style="color:#774111;">Metal y Cemento</a></button><br><br>\\r\\n\\r\\n\\t\\t\\t\\t\\t\\t\\t\\r\\n\\t\\t\\t\\t\\t\\t\\t\\t\\t</center>\\r\\n\\t\\t\\t\\t\\t\\t\\t\\t\\t\\r\\n\\t\\t\\t\\t\\t\\t\\t\\t</div>\\r\\n\\t\\t\\t\\t\\t\\t\\t</div>\\r\\n\\t\\t\\t\\t\\t\\t\\t<center>\\r\\n\\r\\n\\t\\t\\t\\t\\t\\t\\t<button class="btn" style="background-color:transparent"><a href="\', escape=False)'
p101
sI61
S"response.write(URL('chuGame','chuList'))"
p102
sI62
S'response.write(\'"><img src="../static/images/atras.png" width=50 height=50 ></a>\\r\\n\\t\\t\\t\\t\\t\\t\\t</button>\\r\\n\\r\\n\\t\\t\\t\\t\\t\\t\\t</center>\\r\\n\\t\\t\\t\\t\\t\\t</div>\\r\\n\\r\\n\\t\\t\\t\\t\\t</div>\\r\\n\\t\\t\\t\\t</div>\\r\\n\\t\\t\\t</div>\\r\\n\\t\\t</div>\\r\\n\\t</div>\\r\\n</body>\\r\\n</html>\\r\\n\', escape=False)'
p103
sI63
S'response.write(\'\\r\\n\\r\\n<!-- Librer\\xc3\\xada jQuery requerida por los plugins de JavaScript -->\\r\\n  <script src="http://code.jquery.com/jquery.js"></script>\\r\\n<!-- Versi\\xc3\\xb3n compilada y comprimida del JavaScript de Bootstrap -->\\r\\n    <script src="//netdna.bootstrapcdn.com/bootstrap/3.1.0/js/bootstrap.min.js"></script>\\r\\n  </body>\\r\\n\\r\\n</html>\', escape=False)'
p104
ssg83
S'()'
p105
sg85
S'<module>'
p106
sasS'pyver'
p107
S'Python 2.7.9: C:\\Users\\Informatorio\\Desktop\\web2py\\web2py.exe (prefix: C:\\Python27)'
p108
sS'session'
p109
g57
(S's\x1a\x00\x00\x00<div><table></table></div>'
tRp110
sS'etype'
p111
S"<type 'exceptions.AttributeError'>"
p112
sS'date'
p113
S'Wed Jul 13 09:14:01 2016'
p114
sS'response'
p115
g57
(S's$?\x00\x00<div><table><tr><td style="font-weight:bold;vertical-align:top;">body</td><td style="vertical-align:top;">:</td><td><div>&lt;cStringIO.StringO object at 0x0415B8C0&gt;</div></td></tr><tr><td style="font-weight:bold;vertical-align:top;">cookies</td><td style="vertical-align:top;">:</td><td><div><table><tr><td style="font-weight:bold;vertical-align:top;">session_id_chu</td><td style="vertical-align:top;">:</td><td><div>127.0.0.1-1d20f4ca-34e1-4c98-af46-89170dba1487<table><tr><td style="font-weight:bold;vertical-align:top;">comment</td><td style="vertical-align:top;">:</td><td><div></div></td></tr><tr><td style="font-weight:bold;vertical-align:top;">domain</td><td style="vertical-align:top;">:</td><td><div></div></td></tr><tr><td style="font-weight:bold;vertical-align:top;">expires</td><td style="vertical-align:top;">:</td><td><div></div></td></tr><tr><td style="font-weight:bold;vertical-align:top;">httponly</td><td style="vertical-align:top;">:</td><td><div></div></td></tr><tr><td style="font-weight:bold;vertical-align:top;">max-age</td><td style="vertical-align:top;">:</td><td><div></div></td></tr><tr><td style="font-weight:bold;vertical-align:top;">path</td><td style="vertical-align:top;">:</td><td><div>/</div></td></tr><tr><td style="font-weight:bold;vertical-align:top;">secure</td><td style="vertical-align:top;">:</td><td><div></div></td></tr><tr><td style="font-weight:bold;vertical-align:top;">version</td><td style="vertical-align:top;">:</td><td><div></div></td></tr></table></div></td></tr></table></div></td></tr><tr><td style="font-weight:bold;vertical-align:top;">delimiters</td><td style="vertical-align:top;">:</td><td><div><table><tr><td><div>{{</div></td></tr><tr><td><div>}}</div></td></tr></table></div></td></tr><tr><td style="font-weight:bold;vertical-align:top;">files</td><td style="vertical-align:top;">:</td><td><div><table><tr><td><div>/Chu/static/js/jquery.js</div></td></tr><tr><td><div>/Chu/static/css/calendar.css</div></td></tr><tr><td><div>/Chu/static/js/calendar.js</div></td></tr><tr><td><div>/Chu/static/js/web2py.js</div></td></tr></table></div></td></tr><tr><td style="font-weight:bold;vertical-align:top;">flash</td><td style="vertical-align:top;">:</td><td><div></div></td></tr><tr><td style="font-weight:bold;vertical-align:top;">form_label_separator</td><td style="vertical-align:top;">:</td><td><div></div></td></tr><tr><td style="font-weight:bold;vertical-align:top;">formstyle</td><td style="vertical-align:top;">:</td><td><div>bootstrap3_inline</div></td></tr><tr><td style="font-weight:bold;vertical-align:top;">generic_patterns</td><td style="vertical-align:top;">:</td><td><div><table><tr><td><div>*</div></td></tr></table></div></td></tr><tr><td style="font-weight:bold;vertical-align:top;">google_analytics_id</td><td style="vertical-align:top;">:</td><td><div>None</div></td></tr><tr><td style="font-weight:bold;vertical-align:top;">headers</td><td style="vertical-align:top;">:</td><td><div><table><tr><td style="font-weight:bold;vertical-align:top;">X-Powered-By</td><td style="vertical-align:top;">:</td><td><div>web2py</div></td></tr></table></div></td></tr><tr><td style="font-weight:bold;vertical-align:top;">logo</td><td style="vertical-align:top;">:</td><td><div><a class="navbar-brand" href="http://www.web2py.com/" id="web2py-logo"><b>web<span>2</span>py</b>&trade;&nbsp;</a></div></td></tr><tr><td style="font-weight:bold;vertical-align:top;">menu</td><td style="vertical-align:top;">:</td><td><div><table><tr><td><div><table><tr><td><div>Inicio</div></td></tr><tr><td><div>False</div></td></tr><tr><td><div>/Chu/default/index</div></td></tr><tr><td><div><table></table></div></td></tr></table></div></td></tr><tr><td><div><table><tr><td><div>Mis Sitios</div></td></tr><tr><td><div>False</div></td></tr><tr><td><div>/admin/default/site</div></td></tr></table></div></td></tr><tr><td><div><table><tr><td><div>Esta Aplicaci\xc3\xb3n</div></td></tr><tr><td><div>False</div></td></tr><tr><td><div>#</div></td></tr><tr><td><div><table><tr><td><div><table><tr><td><div>Design</div></td></tr><tr><td><div>False</div></td></tr><tr><td><div>/admin/default/design/Chu</div></td></tr></table></div></td></tr><tr><td><div><li class="divider"></li></div></td></tr><tr><td><div><table><tr><td><div>Controlador</div></td></tr><tr><td><div>False</div></td></tr><tr><td><div>/admin/default/edit/Chu/controllers/chuGame.py</div></td></tr></table></div></td></tr><tr><td><div><table><tr><td><div>Vista</div></td></tr><tr><td><div>False</div></td></tr><tr><td><div>/admin/default/edit/Chu/views/chuGame/chuHunt.html</div></td></tr></table></div></td></tr><tr><td><div><table><tr><td><div>Modelo BDD</div></td></tr><tr><td><div>False</div></td></tr><tr><td><div>/admin/default/edit/Chu/models/db.py</div></td></tr></table></div></td></tr><tr><td><div><table><tr><td><div>Modelo "menu"</div></td></tr><tr><td><div>False</div></td></tr><tr><td><div>/admin/default/edit/Chu/models/menu.py</div></td></tr></table></div></td></tr><tr><td><div><table><tr><td><div>Config.ini</div></td></tr><tr><td><div>False</div></td></tr><tr><td><div>/admin/default/edit/Chu/private/appconfig.ini</div></td></tr></table></div></td></tr><tr><td><div><table><tr><td><div>Dise\xc3\xb1o de p\xc3\xa1gina</div></td></tr><tr><td><div>False</div></td></tr><tr><td><div>/admin/default/edit/Chu/views/layout.html</div></td></tr></table></div></td></tr><tr><td><div><table><tr><td><div>Hoja de estilo</div></td></tr><tr><td><div>False</div></td></tr><tr><td><div>/admin/default/edit/Chu/static/css/web2py-bootstrap3.css</div></td></tr></table></div></td></tr><tr><td><div><table><tr><td><div>Base de datos</div></td></tr><tr><td><div>False</div></td></tr><tr><td><div>/Chu/appadmin/index</div></td></tr></table></div></td></tr><tr><td><div><table><tr><td><div>Errores</div></td></tr><tr><td><div>False</div></td></tr><tr><td><div>/admin/default/errors/Chu</div></td></tr></table></div></td></tr><tr><td><div><table><tr><td><div>Acerca de</div></td></tr><tr><td><div>False</div></td></tr><tr><td><div>/admin/default/about/Chu</div></td></tr></table></div></td></tr></table></div></td></tr></table></div></td></tr><tr><td><div><table><tr><td><div>web2py.com</div></td></tr><tr><td><div>False</div></td></tr><tr><td><div>#</div></td></tr><tr><td><div><table><tr><td><div><table><tr><td><div>Descargas</div></td></tr><tr><td><div>False</div></td></tr><tr><td><div>http://www.web2py.com/examples/default/download</div></td></tr></table></div></td></tr><tr><td><div><table><tr><td><div>Soporte</div></td></tr><tr><td><div>False</div></td></tr><tr><td><div>http://www.web2py.com/examples/default/support</div></td></tr></table></div></td></tr><tr><td><div><table><tr><td><div>Demostraci\xc3\xb3n</div></td></tr><tr><td><div>False</div></td></tr><tr><td><div>http://web2py.com/demo_admin</div></td></tr></table></div></td></tr><tr><td><div><table><tr><td><div>Ejemplos R\xc3\xa1pidos</div></td></tr><tr><td><div>False</div></td></tr><tr><td><div>http://web2py.com/examples/default/examples</div></td></tr></table></div></td></tr><tr><td><div><table><tr><td><div>FAQ</div></td></tr><tr><td><div>False</div></td></tr><tr><td><div>http://web2py.com/AlterEgo</div></td></tr></table></div></td></tr><tr><td><div><table><tr><td><div>V\xc3\xaddeos</div></td></tr><tr><td><div>False</div></td></tr><tr><td><div>http://www.web2py.com/examples/default/videos/</div></td></tr></table></div></td></tr><tr><td><div><table><tr><td><div>Aplicaciones Libres</div></td></tr><tr><td><div>False</div></td></tr><tr><td><div>http://web2py.com/appliances</div></td></tr></table></div></td></tr><tr><td><div><table><tr><td><div>Plugins</div></td></tr><tr><td><div>False</div></td></tr><tr><td><div>http://web2py.com/plugins</div></td></tr></table></div></td></tr><tr><td><div><table><tr><td><div>Recetas</div></td></tr><tr><td><div>False</div></td></tr><tr><td><div>http://web2pyslices.com/</div></td></tr></table></div></td></tr></table></div></td></tr></table></div></td></tr><tr><td><div><table><tr><td><div>Documentaci\xc3\xb3n</div></td></tr><tr><td><div>False</div></td></tr><tr><td><div>#</div></td></tr><tr><td><div><table><tr><td><div><table><tr><td><div>Online book</div></td></tr><tr><td><div>False</div></td></tr><tr><td><div>http://www.web2py.com/book</div></td></tr></table></div></td></tr><tr><td><div><li class="divider"></li></div></td></tr><tr><td><div><table><tr><td><div>Prefacio</div></td></tr><tr><td><div>False</div></td></tr><tr><td><div>http://www.web2py.com/book/default/chapter/00</div></td></tr></table></div></td></tr><tr><td><div><table><tr><td><div>Introducci\xc3\xb3n</div></td></tr><tr><td><div>False</div></td></tr><tr><td><div>http://www.web2py.com/book/default/chapter/01</div></td></tr></table></div></td></tr><tr><td><div><table><tr><td><div>Python</div></td></tr><tr><td><div>False</div></td></tr><tr><td><div>http://www.web2py.com/book/default/chapter/02</div></td></tr></table></div></td></tr><tr><td><div><table><tr><td><div>Resumen</div></td></tr><tr><td><div>False</div></td></tr><tr><td><div>http://www.web2py.com/book/default/chapter/03</div></td></tr></table></div></td></tr><tr><td><div><table><tr><td><div>El N\xc3\xbacleo</div></td></tr><tr><td><div>False</div></td></tr><tr><td><div>http://www.web2py.com/book/default/chapter/04</div></td></tr></table></div></td></tr><tr><td><div><table><tr><td><div>Las Vistas</div></td></tr><tr><td><div>False</div></td></tr><tr><td><div>http://www.web2py.com/book/default/chapter/05</div></td></tr></table></div></td></tr><tr><td><div><table><tr><td><div>Base de datos</div></td></tr><tr><td><div>False</div></td></tr><tr><td><div>http://www.web2py.com/book/default/chapter/06</div></td></tr></table></div></td></tr><tr><td><div><table><tr><td><div>Formularios y validadores</div></td></tr><tr><td><div>False</div></td></tr><tr><td><div>http://www.web2py.com/book/default/chapter/07</div></td></tr></table></div></td></tr><tr><td><div><table><tr><td><div>Correo electr\xc3\xb3nico y SMS</div></td></tr><tr><td><div>False</div></td></tr><tr><td><div>http://www.web2py.com/book/default/chapter/08</div></td></tr></table></div></td></tr><tr><td><div><table><tr><td><div>Control de Acceso</div></td></tr><tr><td><div>False</div></td></tr><tr><td><div>http://www.web2py.com/book/default/chapter/09</div></td></tr></table></div></td></tr><tr><td><div><table><tr><td><div>Servicios</div></td></tr><tr><td><div>False</div></td></tr><tr><td><div>http://www.web2py.com/book/default/chapter/10</div></td></tr></table></div></td></tr><tr><td><div><table><tr><td><div>Recetas AJAX</div></td></tr><tr><td><div>False</div></td></tr><tr><td><div>http://www.web2py.com/book/default/chapter/11</div></td></tr></table></div></td></tr><tr><td><div><table><tr><td><div>Componentes y Plugins</div></td></tr><tr><td><div>False</div></td></tr><tr><td><div>http://www.web2py.com/book/default/chapter/12</div></td></tr></table></div></td></tr><tr><td><div><table><tr><td><div>Recetas de despliegue</div></td></tr><tr><td><div>False</div></td></tr><tr><td><div>http://www.web2py.com/book/default/chapter/13</div></td></tr></table></div></td></tr><tr><td><div><table><tr><td><div>Otras Recetas</div></td></tr><tr><td><div>False</div></td></tr><tr><td><div>http://www.web2py.com/book/default/chapter/14</div></td></tr></table></div></td></tr><tr><td><div><table><tr><td><div>Helping web2py</div></td></tr><tr><td><div>False</div></td></tr><tr><td><div>http://www.web2py.com/book/default/chapter/15</div></td></tr></table></div></td></tr><tr><td><div><table><tr><td><div>Buy web2py\'s book</div></td></tr><tr><td><div>False</div></td></tr><tr><td><div>http://stores.lulu.com/web2py</div></td></tr></table></div></td></tr></table></div></td></tr></table></div></td></tr><tr><td><div><table><tr><td><div>Comunidad</div></td></tr><tr><td><div>False</div></td></tr><tr><td><div>None</div></td></tr><tr><td><div><table><tr><td><div><table><tr><td><div>Grupos</div></td></tr><tr><td><div>False</div></td></tr><tr><td><div>http://www.web2py.com/examples/default/usergroups</div></td></tr></table></div></td></tr><tr><td><div><table><tr><td><div>Twitter</div></td></tr><tr><td><div>False</div></td></tr><tr><td><div>http://twitter.com/web2py</div></td></tr></table></div></td></tr><tr><td><div><table><tr><td><div>Chat en vivo</div></td></tr><tr><td><div>False</div></td></tr><tr><td><div>http://webchat.freenode.net/?channels=web2py</div></td></tr></table></div></td></tr></table></div></td></tr></table></div></td></tr></table></div></td></tr><tr><td style="font-weight:bold;vertical-align:top;">meta</td><td style="vertical-align:top;">:</td><td><div><table><tr><td style="font-weight:bold;vertical-align:top;">author</td><td style="vertical-align:top;">:</td><td><div>Your Name &lt;you@example.com&gt;</div></td></tr><tr><td style="font-weight:bold;vertical-align:top;">description</td><td style="vertical-align:top;">:</td><td><div>a cool new app</div></td></tr><tr><td style="font-weight:bold;vertical-align:top;">generator</td><td style="vertical-align:top;">:</td><td><div>Web2py Web Framework</div></td></tr><tr><td style="font-weight:bold;vertical-align:top;">keywords</td><td style="vertical-align:top;">:</td><td><div><table><tr><td><div>web2py</div></td></tr><tr><td><div>python</div></td></tr><tr><td><div>framework</div></td></tr></table></div></td></tr></table></div></td></tr><tr><td style="font-weight:bold;vertical-align:top;">models_to_run</td><td style="vertical-align:top;">:</td><td><div><table><tr><td><div>^\\w+\\.py$</div></td></tr><tr><td><div>^chuGame/\\w+\\.py$</div></td></tr><tr><td><div>^chuGame/chuHunt/\\w+\\.py$</div></td></tr></table></div></td></tr><tr><td style="font-weight:bold;vertical-align:top;">postprocessing</td><td style="vertical-align:top;">:</td><td><div><table></table></div></td></tr><tr><td style="font-weight:bold;vertical-align:top;">session_client</td><td style="vertical-align:top;">:</td><td><div>127.0.0.1</div></td></tr><tr><td style="font-weight:bold;vertical-align:top;">session_cookie_compression_level</td><td style="vertical-align:top;">:</td><td><div>None</div></td></tr><tr><td style="font-weight:bold;vertical-align:top;">session_cookie_expires</td><td style="vertical-align:top;">:</td><td><div>None</div></td></tr><tr><td style="font-weight:bold;vertical-align:top;">session_data_name</td><td style="vertical-align:top;">:</td><td><div>session_data_chu</div></td></tr><tr><td style="font-weight:bold;vertical-align:top;">session_file</td><td style="vertical-align:top;">:</td><td><div>None</div></td></tr><tr><td style="font-weight:bold;vertical-align:top;">session_filename</td><td style="vertical-align:top;">:</td><td><div>C:\\Users\\Informatorio\\Desktop\\web2py\\applications\\Chu\\sessions\\127.0.0.1-1d20f4ca-34e1-4c98-af46-89170dba1487</div></td></tr><tr><td style="font-weight:bold;vertical-align:top;">session_hash</td><td style="vertical-align:top;">:</td><td><div>c0762cbf4baf7f9af97c051e7fcb8083</div></td></tr><tr><td style="font-weight:bold;vertical-align:top;">session_id</td><td style="vertical-align:top;">:</td><td><div>127.0.0.1-1d20f4ca-34e1-4c98-af46-89170dba1487</div></td></tr><tr><td style="font-weight:bold;vertical-align:top;">session_id_name</td><td style="vertical-align:top;">:</td><td><div>session_id_chu</div></td></tr><tr><td style="font-weight:bold;vertical-align:top;">session_masterapp</td><td style="vertical-align:top;">:</td><td><div>Chu</div></td></tr><tr><td style="font-weight:bold;vertical-align:top;">session_new</td><td style="vertical-align:top;">:</td><td><div>True</div></td></tr><tr><td style="font-weight:bold;vertical-align:top;">session_storage_type</td><td style="vertical-align:top;">:</td><td><div>file</div></td></tr><tr><td style="font-weight:bold;vertical-align:top;">status</td><td style="vertical-align:top;">:</td><td><div>200</div></td></tr><tr><td style="font-weight:bold;vertical-align:top;">subtitle</td><td style="vertical-align:top;">:</td><td><div></div></td></tr><tr><td style="font-weight:bold;vertical-align:top;">title</td><td style="vertical-align:top;">:</td><td><div>Chu</div></td></tr><tr><td style="font-weight:bold;vertical-align:top;">view</td><td style="vertical-align:top;">:</td><td><div>chuGame/chuHunt.html</div></td></tr></table></div>'
tRp116
sS'locals'
p117
(dp118
S'Service'
p119
S"<class 'gluon.tools.Service'>"
p120
sS'OBJECT'
p121
S"<class 'gluon.html.OBJECT'>"
p122
sS'SQLDB'
p123
S"<class 'pydal.base.DAL'>"
p124
sg109
S'<Storage {}>'
p125
sS'LINK'
p126
S"<class 'gluon.html.LINK'>"
p127
sS'BR'
p128
S"<class 'gluon.html.BR'>"
p129
sS'local_import'
p130
S'<function <lambda>>'
p131
sS'OPTGROUP'
p132
S"<class 'gluon.html.OPTGROUP'>"
p133
sS'__package__'
p134
S'None'
p135
sS'PRE'
p136
S"<class 'gluon.html.PRE'>"
p137
sS'IS_INT_IN_RANGE'
p138
S"<class 'gluon.validators.IS_INT_IN_RANGE'>"
p139
sS'left_sidebar_enabled'
p140
S'False'
p141
sS'IS_LOWER'
p142
S"<class 'gluon.validators.IS_LOWER'>"
p143
sS'IS_STRONG'
p144
S"<class 'gluon.validators.IS_STRONG'>"
p145
sS'cache'
p146
S'<gluon.cache.Cache object>'
p147
sS'IS_IN_DB'
p148
S"<class 'gluon.validators.IS_IN_DB'>"
p149
sS'TAG'
p150
S'<gluon.html.__TAG__ object>'
p151
sS'SQLField'
p152
S"<class 'pydal.objects.Field'>"
p153
sS'mail'
p154
S'<gluon.tools.Mail object>'
p155
sS'BODY'
p156
S"<class 'gluon.html.BODY'>"
p157
sS'IS_DATE_IN_RANGE'
p158
S"<class 'gluon.validators.IS_DATE_IN_RANGE'>"
p159
sS'IFRAME'
p160
S"<class 'gluon.html.IFRAME'>"
p161
sS'URL'
p162
S'<function URL>'
p163
sS'__file__'
p164
S"r'C:\\Users\\Informatorio\\Desktop\\web2py\\applications\\Chu\\views\\chuGame/chuHunt.html'"
p165
sS'db'
p166
S'<DAL uri="sqlite://storage.sqlite">'
p167
sS'auth'
p168
S'<gluon.tools.Auth object>'
p169
sS'P'
S"<class 'gluon.html.P'>"
p170
sS'TFOOT'
p171
S"<class 'gluon.html.TFOOT'>"
p172
sS'XHTML'
p173
S"<class 'gluon.html.XHTML'>"
p174
sS'ON'
p175
S'True'
p176
sS'OL'
p177
S"<class 'gluon.html.OL'>"
p178
sS'TEXTAREA'
p179
S"<class 'gluon.html.TEXTAREA'>"
p180
sS'MENU'
p181
S"<class 'gluon.html.MENU'>"
p182
sS'IS_IMAGE'
p183
S"<class 'gluon.validators.IS_IMAGE'>"
p184
sS'EM'
p185
S"<class 'gluon.html.EM'>"
p186
sS'CODE'
p187
S"<class 'gluon.html.CODE'>"
p188
sS'HTTP'
p189
S"<class 'gluon.http.HTTP'>"
p190
sS'HR'
p191
S"<class 'gluon.html.HR'>"
p192
sS'IS_DATETIME'
p193
S"<class 'gluon.validators.IS_DATETIME'>"
p194
sS'STYLE'
p195
S"<class 'gluon.html.STYLE'>"
p196
sS'LABEL'
p197
S"<class 'gluon.html.LABEL'>"
p198
sS'CLEANUP'
p199
S"<class 'gluon.validators.CLEANUP'>"
p200
sS'plugins'
p201
S'<gluon.tools.PluginManager object>'
p202
sS'SELECT'
p203
S"<class 'gluon.html.SELECT'>"
p204
sS'CENTER'
p205
S"<class 'gluon.html.CENTER'>"
p206
sS'Auth'
p207
S"<class 'gluon.tools.Auth'>"
p208
sS'DEVELOPMENT_MENU'
p209
g176
sS'__builtins__'
p210
S"{'ArithmeticError': <type 'exceptions.ArithmeticError'>, 'AssertionError': <type 'exceptions.AssertionError'>, 'AttributeError': <type 'exceptions.AttributeError'>, 'BaseException': <type 'exceptions.BaseException'>, 'BufferError': <type 'exceptions.BufferError'>, 'BytesWarning': <type 'exceptions.BytesWarning'>, 'DeprecationWarning': <type 'exceptions.DeprecationWarning'>, 'EOFError': <type 'exceptions.EOFError'>, 'Ellipsis': Ellipsis, 'EnvironmentError': <type 'exceptions.EnvironmentError'>, ...}"
p211
sS'HTML'
p212
S"<class 'gluon.html.HTML'>"
p213
sS'SQLFORM'
p214
S"<class 'gluon.sqlhtml.SQLFORM'>"
p215
sS'LOAD'
p216
S'<function LOAD>'
p217
sS'redirect'
p218
S'<function redirect>'
p219
sS'FIELDSET'
p220
S"<class 'gluon.html.FIELDSET'>"
p221
sS'IS_EQUAL_TO'
p222
S"<class 'gluon.validators.IS_EQUAL_TO'>"
p223
sS'embed64'
p224
S'<function embed64>'
p225
sS'IS_LIST_OF'
p226
S"<class 'gluon.validators.IS_LIST_OF'>"
p227
sS'INPUT'
p228
S"<class 'gluon.html.INPUT'>"
p229
sS'EMBED'
p230
S"<class 'gluon.html.EMBED'>"
p231
sS'_'
S'<function _>'
p232
sS'myconf'
p233
S"{'forms': {'formstyle': 'bootstrap3_inline', 'se...': {'names': 'localhost:*, 127.0.0.1:*, *:*, *'}}"
p234
sS'H2'
p235
S"<class 'gluon.html.H2'>"
p236
sS'H3'
p237
S"<class 'gluon.html.H3'>"
p238
sS'AppConfig'
p239
S'<function AppConfig>'
p240
sS'H1'
p241
S"<class 'gluon.html.H1'>"
p242
sS'H6'
p243
S"<class 'gluon.html.H6'>"
p244
sS'H4'
p245
S"<class 'gluon.html.H4'>"
p246
sS'H5'
p247
S"<class 'gluon.html.H5'>"
p248
sS'UL'
p249
S"<class 'gluon.html.UL'>"
p250
sS'IS_UPPER'
p251
S"<class 'gluon.validators.IS_UPPER'>"
p252
sS'xmlescape'
p253
S'<function xmlescape>'
p254
sS'IS_TIME'
p255
S"<class 'gluon.validators.IS_TIME'>"
p256
sS'OPTION'
p257
S"<class 'gluon.html.OPTION'>"
p258
sS'TITLE'
p259
S"<class 'gluon.html.TITLE'>"
p260
sS'CRYPT'
p261
S"<class 'gluon.validators.CRYPT'>"
p262
sS'IS_EMPTY_OR'
p263
S"<class 'gluon.validators.IS_EMPTY_OR'>"
p264
sS'MARKMIN'
p265
S"<class 'gluon.html.MARKMIN'>"
p266
sS'__name__'
p267
S"'__restricted__'"
p268
sS'STRONG'
p269
S"<class 'gluon.html.STRONG'>"
p270
sS'COL'
p271
S"<class 'gluon.html.COL'>"
p272
sS'mc1'
p273
S"'col-md-9'"
p274
sS'mc0'
p275
S"'col-md-12'"
p276
sS'service'
p277
S'<gluon.tools.Service object>'
p278
sS'SCRIPT'
p279
S"<class 'gluon.html.SCRIPT'>"
p280
sS'TABLE'
p281
S"<class 'gluon.html.TABLE'>"
p282
sS'IS_IPV4'
p283
S"<class 'gluon.validators.IS_IPV4'>"
p284
sS'IS_LENGTH'
p285
S"<class 'gluon.validators.IS_LENGTH'>"
p286
sS'IS_IPV6'
p287
S"<class 'gluon.validators.IS_IPV6'>"
p288
sS'XML'
p289
S"<class 'gluon.html.XML'>"
p290
sS'B'
S"<class 'gluon.html.B'>"
p291
sS'IMG'
p292
S"<class 'gluon.html.IMG'>"
p293
sS'SQLTABLE'
p294
S"<class 'gluon.sqlhtml.SQLTABLE'>"
p295
sS'IS_MATCH'
p296
S"<class 'gluon.validators.IS_MATCH'>"
p297
sS'IS_ALPHANUMERIC'
p298
S"<class 'gluon.validators.IS_ALPHANUMERIC'>"
p299
sS'SPAN'
p300
S"<class 'gluon.html.SPAN'>"
p301
sS'IS_JSON'
p302
S"<class 'gluon.validators.IS_JSON'>"
p303
sS'IS_IPADDRESS'
p304
S"<class 'gluon.validators.IS_IPADDRESS'>"
p305
sS'IS_SLUG'
p306
S"<class 'gluon.validators.IS_SLUG'>"
p307
sS'BEAUTIFY'
p308
S"<class 'gluon.html.BEAUTIFY'>"
p309
sS'META'
p310
S"<class 'gluon.html.META'>"
p311
sS'BUTTON'
p312
S"<class 'gluon.html.BUTTON'>"
p313
sS'IS_DATE'
p314
S"<class 'gluon.validators.IS_DATE'>"
p315
sS'IS_EMAIL'
p316
S"<class 'gluon.validators.IS_EMAIL'>"
p317
sS'middle_column'
p318
S"'col-md-12'"
p319
sS'IS_NOT_EMPTY'
p320
S"<class 'gluon.validators.IS_NOT_EMPTY'>"
p321
sS'IS_FLOAT_IN_RANGE'
p322
S"<class 'gluon.validators.IS_FLOAT_IN_RANGE'>"
p323
sS'TBODY'
p324
S"<class 'gluon.html.TBODY'>"
p325
sS'CAT'
p326
S"<class 'gluon.html.CAT'>"
p327
sS'Field'
p328
S"<class 'pydal.objects.Field'>"
p329
sS'mc2'
p330
S"'col-md-6'"
p331
sS'IS_LIST_OF_EMAILS'
p332
S"<class 'gluon.validators.IS_LIST_OF_EMAILS'>"
p333
sS'DIV'
p334
S"<class 'gluon.html.DIV'>"
p335
sS'LEGEND'
p336
S"<class 'gluon.html.LEGEND'>"
p337
sS'COLGROUP'
p338
S"<class 'gluon.html.COLGROUP'>"
p339
sS'DAL'
p340
S"<class 'pydal.base.DAL'>"
p341
sS'ASSIGNJS'
p342
S'<function ASSIGNJS>'
p343
sS'TR'
p344
S"<class 'gluon.html.TR'>"
p345
sS'LI'
p346
S"<class 'gluon.html.LI'>"
p347
sS'right_sidebar_enabled'
p348
g141
sS'TH'
p349
S"<class 'gluon.html.TH'>"
p350
sS'TD'
p351
S"<class 'gluon.html.TD'>"
p352
sS'PluginManager'
p353
S"<class 'gluon.tools.PluginManager'>"
p354
sS'IS_URL'
p355
S"<class 'gluon.validators.IS_URL'>"
p356
sS'A'
S"<class 'gluon.html.A'>"
p357
sS'HEAD'
p358
S"<class 'gluon.html.HEAD'>"
p359
sS'IS_DATETIME_IN_RANGE'
p360
S"<class 'gluon.validators.IS_DATETIME_IN_RANGE'>"
p361
sS'FORM'
p362
S"<class 'gluon.html.FORM'>"
p363
sS'I'
S"<class 'gluon.html.I'>"
p364
sS'sculp'
p365
S'None'
p366
sS'IS_NOT_IN_DB'
p367
S"<class 'gluon.validators.IS_NOT_IN_DB'>"
p368
sg115
S"<Storage {'body': <cStringIO.StringO object at 0... at 0x03F7B770>, 'view': 'chuGame/chuHunt.html'}>"
p369
sS'THEAD'
p370
S"<class 'gluon.html.THEAD'>"
p371
sS'ANY_OF'
p372
S"<class 'gluon.validators.ANY_OF'>"
p373
sS'IS_NULL_OR'
p374
S"<class 'gluon.validators.IS_EMPTY_OR'>"
p375
sg56
S"<Storage {'_vars': None, 'function': 'chuHunt', ...rmatorio\\\\Desktop\\\\web2py\\\\applications\\\\Chu\\\\'}>"
p376
sS'IS_EXPR'
p377
S"<class 'gluon.validators.IS_EXPR'>"
p378
sS'T'
S'<gluon.languages.translator object>'
p379
sS'IS_IN_SET'
p380
S"<class 'gluon.validators.IS_IN_SET'>"
p381
sS'IS_UPLOAD_FILENAME'
p382
S"<class 'gluon.validators.IS_UPLOAD_FILENAME'>"
p383
sS'TT'
p384
S"<class 'gluon.html.TT'>"
p385
sS'IS_DECIMAL_IN_RANGE'
p386
S"<class 'gluon.validators.IS_DECIMAL_IN_RANGE'>"
p387
sssS'traceback'
p388
S'Traceback (most recent call last):\n  File "C:\\Users\\Informatorio\\Desktop\\web2py\\gluon\\restricted.py", line 227, in restricted\n    exec ccode in environment\n  File "C:\\Users\\Informatorio\\Desktop\\web2py\\applications\\Chu\\views\\chuGame/chuHunt.html", line 59, in <module>\nAttributeError: \'NoneType\' object has no attribute \'fileImageNHURL\'\n'
p389
s.