(dp1
S'output'
p2
S"<type 'exceptions.ValueError'> invalid literal for long() with base 10: 'Emi'"
p3
sS'layer'
p4
S'D:\\Informatorio2016\\ET1\\Road to Python\\Web2py\\web2py\\applications\\ChuwalR\\views\\chuGame/chuList.html'
p5
sS'code'
p6
S'#extend \'layout.html\'\nresponse.write(\'\\r\\n\\r\\n<!DOCTYPE html>\\r\\n<!--[if (gt IE 9)|!(IE)]><!--> <html class="no-js" lang="\', escape=False)\nresponse.write(T.accepted_language or \'en\')\nresponse.write(\'"> <!--<![endif]-->\\r\\n  <head>\\r\\n    <meta charset="utf-8">\\r\\n    <!-- www.phpied.com/conditional-comments-block-downloads/ -->\\r\\n    <!-- Always force latest IE rendering engine\\r\\n         (even in intranet) & Chrome Frame\\r\\n         Remove this if you use the .htaccess -->\\r\\n    <meta http-equiv="X-UA-Compatible" content="IE=edge\', escape=False)\nresponse.write(not request.is_local and \',chrome=1\' or \'\')\nresponse.write(\'">\\r\\n    <!--  Mobile Viewport Fix\\r\\n          j.mp/mobileviewport & davidbcalhoun.com/2010/viewport-metatag\\r\\n          device-width: Occupy full width of the screen in its current orientation\\r\\n          initial-scale = 1.0 retains dimensions instead of zooming out if page height > device height\\r\\n          user-scalable = yes allows the user to zoom in -->\\r\\n    <meta name="viewport" content="width=device-width, initial-scale=1.0">\\r\\n    <title>Chuwal</title>\\r\\n    <!-- http://dev.w3.org/html5/markup/meta.name.html -->\\r\\n    <meta name="application-name" content="\', escape=False)\nresponse.write(request.application)\nresponse.write(\'">\\r\\n    <!-- Speaking of Google, don\\\'t forget to set your site up:\\r\\n         http://google.com/webmasters -->\\r\\n    <meta name="google-site-verification" content="">\\r\\n    <!-- Este es referecia al archivo css (controollervistaP.css) -->\\r\\n    <link rel="stylesheet" href="\', escape=False)\nresponse.write(URL(\'static\',\'css/chuCSS.css\'))\nresponse.write(\'"/> \\r\\n\\r\\n    <!-- Stylesheet de bootstrap -->\\r\\n\\r\\n    <!-- Versi\\xc3\\xb3n compilada y comprimida del CSS de Bootstrap -->\\r\\n    <link rel="stylesheet" href="//netdna.bootstrapcdn.com/bootstrap/3.1.0/css/bootstrap.min.css">\\r\\n     \\r\\n    <!-- Tema opcional -->\\r\\n    <link rel="stylesheet" href="//netdna.bootstrapcdn.com/bootstrap/3.1.0/css/bootstrap-theme.min.css">\\r\\n\\r\\n    <!-- Stylesheet de material disign -->\\r\\n    <link rel="stylesheet" href="https://fonts.googleapis.com/icon?family=Material+Icons">\\r\\n    <link rel="stylesheet" href="https://code.getmdl.io/1.1.3/material.indigo-pink.min.css">\\r\\n\\r\\n    <!-- FavIcon de la pagina, el jarrito en cada pestania -->\\r\\n    <link rel="icon" href="\', escape=False)\nresponse.write(URL(\'static\',\'images/ChuwalFanIco.png\'))\nresponse.write(\'">\\r\\n    <!-- All JavaScript at the bottom, except for Modernizr which enables\\r\\n         HTML5 elements & feature detects -->\\r\\n\\r\\n    <script src="\', escape=False)\nresponse.write(URL(\'static\',\'js/modernizr-2.8.3.min.js\'))\nresponse.write(\'"></script>\\r\\n    <!--[if lt IE 9]>\\r\\n        <script src="\', escape=False)\nresponse.write(URL(\'static\',\'js/respond-1.4.2.min.js\'))\nresponse.write(\'"></script>\\r\\n        <![endif]-->\\r\\n    <!-- Favicons -->\\r\\n    \', escape=False)\nresponse.write(\'<script type="text/javascript"><!--\\r\\n    // These variables are used by the web2py_ajax_init function in web2py_ajax.js (which is loaded below).\\r\\n    var w2p_ajax_confirm_message = "\', escape=False)\nresponse.write(T(\'Are you sure you want to delete this object?\'))\nresponse.write(\'";\\r\\n    var w2p_ajax_disable_with_message = "\', escape=False)\nresponse.write(T(\'Working...\'))\nresponse.write(\'";\\r\\n    var w2p_ajax_date_format = "\', escape=False)\nresponse.write(T(\'%Y-%m-%d\'))\nresponse.write(\'";\\r\\n    var w2p_ajax_datetime_format = "\', escape=False)\nresponse.write(T(\'%Y-%m-%d %H:%M:%S\'))\nresponse.write(\'";\\r\\n    var ajax_error_500 = \\\'\', escape=False)\nresponse.write(T.M(\'An error occured, please [[reload %s]] the page\') % URL(args=request.args, vars=request.get_vars))\nresponse.write("\'\\r\\n    //--></script>\\r\\n", escape=False)\nresponse.files.insert(0,URL(\'static\',\'js/jquery.js\'))\nresponse.files.insert(1,URL(\'static\',\'css/calendar.css\'))\nresponse.files.insert(2,URL(\'static\',\'js/calendar.js\'))\nresponse.files.insert(3,URL(\'static\',\'js/web2py.js\'))\nresponse.include_meta()\nresponse.include_files()\nresponse.write(\'\\r\\n\', escape=False)\nresponse.write(\' <!-- this includes jquery.js, calendar.js/.css and web2py.js -->\\r\\n    \', escape=False)\nresponse.write(\'\\r\\n    \', escape=False)\n# using sidebars need to know what sidebar you want to use\nmc0 = \'col-md-12\'\nmc1 = \'col-md-9\'\nmc2 = \'col-md-6\'\nleft_sidebar_enabled = globals().get(\'left_sidebar_enabled\', False)\nright_sidebar_enabled = globals().get(\'right_sidebar_enabled\', False)\nmiddle_column = {0: mc0, 1: mc1, 2: mc2}[\n(left_sidebar_enabled and 1 or 0)+(right_sidebar_enabled and 1 or 0)]\nresponse.write(\'\\r\\n\\r\\n    <style> [type="button"]\\r\\n    {\\r\\n        width:100%;\\r\\n        height:100%;\\r\\n        display:block;\\r\\n        background-color:transparent;\\r\\n        color:white;\\r\\n        border:none;\\r\\n        outline:none;\\r\\n    }\\r\\n\\r\\n    .logo{\\r\\n\\r\\n      margin: 10px 0;\\r\\n    }\\r\\n\\r\\n      .logo2{\\r\\n\\r\\n        margin: 5px 0;\\r\\n    }\\r\\n\\r\\n    </style>\\r\\n    \\r\\n    <style>\\r\\n      /* iPhone 4 ----------- */\\r\\n      @media only screen and (min-device-width : 320px) and (max-device-width : 480px) and (orientation : landscape) and (-webkit-min-device-pixel-ratio : 2) {\\r\\n        \', escape=False)\nresponse.write(\'\\r\\n        \', escape=False)\nresponse.write(\'\\r\\n      }\\r\\n\\r\\n      @media only screen and (min-device-width : 320px) and (max-device-width : 480px) and (orientation : portrait) and (-webkit-min-device-pixel-ratio : 2) {\\r\\n      /* Styles */\\r\\n      }\\r\\n    </style>\\r\\n\\r\\n  </head>\\r\\n\\r\\n  <body class="backgroundChu">\\r\\n\\r\\n  <!-- Barra de navegacion -->\\r\\n    <nav class="navbar navbar-default" role="navigation">\\r\\n      <div class="container-fluid" style="background-color:#B37E44;">\\r\\n        <div class="navbar-header">\\r\\n          <button class="navbar-toggle" data-toggle="collapse"\\r\\n          data-target=".navbar-ex1-collapse">\\r\\n            <span class="sr-only">Desplegar navegaci\\xc3\\xb3n</span>\\r\\n            <span class="icon-bar"></span>\\r\\n            <span class="icon-bar"></span>\\r\\n            <span class="icon-bar"></span>\\r\\n          </button>\\r\\n          <a class="navbar-brand">\\r\\n            <a href="\', escape=False)\nresponse.write(URL(\'chuInterface\',\'chuHome\'))\nresponse.write(\'">\\r\\n              <img class="logo" src=../static/images/chuwalBlanco.png width="130" height="31">\\r\\n             </a>\\r\\n          </a>\\r\\n        </div>\\r\\n        \\r\\n        <div class="collapse navbar-collapse navbar-ex1-collapse">\\r\\n         <ul class="nav navbar-nav navbar-right">\\r\\n           \\r\\n            \\r\\n\\r\\n            <!--Aca va el Perfil del Usuario, es solo una muestra de como quedaria despues hayq ue modificarlo-->\\r\\n            <button class="logo2" class="btn dropdown-toggle disable" style="background-color:#B37E44; color:#ffffff;" data-toggle="dropdown">\\r\\n              \', escape=False)\nif session.id==None:\n    response.write(\'\\r\\n              <big><b>WoWSuchApp</b></big>\\r\\n              \', escape=False)\nelse:\n    response.write(\'\\r\\n              <big><b>\', escape=False)\n    response.write(session.nickname)\n    response.write(\'</b></big>\\r\\n              \', escape=False)\n    pass\nresponse.write(\'\\r\\n\\r\\n              <img src=../static/images/user.jpg width="32" height="32" class="img-circle">\\r\\n              <span class="caret"></span>\\r\\n            </button>\\r\\n             \\r\\n            <ul class="dropdown-menu" style="background-color:#F6E490;">\\r\\n              <li><a href="\', escape=False)\nresponse.write(URL(\'chuInterface\',\'chuProfile\'))\nresponse.write(\'">Perfil</a></li>\\r\\n              <li class="divider"></li>\\r\\n              <li><a href="\', escape=False)\nresponse.write(URL(\'chuInterface\',\'chuHelp\'))\nresponse.write(\'">Ayuda</a></li>\\r\\n              <li class="divider"></li>\\r\\n              <li><a href="\', escape=False)\nresponse.write(URL(\'cazador\',\'cerrarSession\'))\nresponse.write(\'">Cerrar Sesi\\xc3\\xb3n</a></li>\\r\\n            </ul>\\r\\n          </ul>\\r\\n        </div>\\r\\n      </div>\\r\\n    </nav>\\r\\n\\r\\n    \', escape=False)\nresponse.write(\'\\r\\n<html lang= "es">\\r\\n<head>\\r\\n    <meta charset="utf-8">\\r\\n    <meta name="viewport" content="width=device-width,initial-scale=1,maximum-scale=1, user-scalable=no">\\r\\n    <link rel="stylesheet" href="\', escape=False)\nresponse.write(URL(\'static\',\'css/chuList.css\'))\nresponse.write(\'"/>\\r\\n    <title>lista de escultura</title>\\r\\n</head>\\r\\n<body>\\r\\n<div class="conteiner-fluid">\\r\\n  \\t<div class="col-md-offset-2 col-xs-offset-1 col-xs-10 col-md-8 center">\\r\\n    \\t<div class="row caja">\\r\\n      \\t\\t<div class="thumbnail borde">\\r\\n\\t\\t\\t\\t<div class="container one" style="border-radius: 5px; background-color:#F6E490; width:100%;">\\r\\n\\t\\t\\t\\t\\t<center>\\r\\n\\t\\t   \\t\\t\\t\\t<p class="text-center lista"><b>Lista de Esculturas</b></p>\\r\\n\\t\\t     \\t\\t</center>\\r\\n\\t\\t     \\t\\t<center>\\r\\n\\t\\t\\t\\t\\t<div class="container-fluid">\\r\\n\\t\\t\\t\\t\\t\\t<div id="wrapper">\\r\\n\\t\\t\\t\\t\\t\\t\\t<div class="scrollbar" id="style-2">\\r\\n\\t\\t\\t\\t\\t\\t     \\t<div class="force-overflow">\\r\\n\\t\\t\\t\\t\\t\\t    \\t\\t<div class="table-responsive">\\r\\n\\t\\t\\t\\t\\t\\t\\t\\t\\t\\t<table class="table table-striped">\\r\\n\\t\\t\\t\\t\\t\\t\\t\\t\\t\\t\\t\', escape=False)\nfor place in places:\n    response.write(\'\\r\\n\\t\\t\\t\\t\\t\\t\\t     \\t\\t\\t\\t\\t\\t\\t\\t\', escape=False)\n    hunt = db(db.sculpturEstado.nickname == session.nickname).select()\n    pass\nfor i in hunt:\n    if i.sculpture_id==place.sculpture_id:\n        z=1\n        pass\n    if z==1:\n        title= place.name\n        estado= "Adquirida"\n        Button= "Ver"\n    else:\n        title= " Desconocida "\n        estado= "A\xc3\xban no cazada"\n        Button= "Cazar"\n        pass\n    response.write(\'\\r\\n\\t\\t\\t\\t\\t\\t\\t\\t\\t\\t\\t<tr>\\r\\n\\t\\t\\t\\t\\t\\t\\t\\t\\t\\t\\t\\t<th><p class="p"><b>\\r\\n\\t\\t\\t\\t\\t\\t\\t\\t\\t\\t\\t\\t\', escape=False)\n    response.write(H6(title))\n    response.write(\'\\r\\n\\t\\t\\t\\t\\t\\t\\t\\t\\t\\t\\t\\t</b></p></<p><font color="#F44336"><i>\', escape=False)\n    response.write(H6(estado))\n    response.write(\'</i></font></p></th>\\r\\n\\t\\t\\t\\t\\t\\t\\t\\t\\t\\t\\t\\t\', escape=False)\n    if place.cazada=="N":\n        response.write(\'\\r\\n\\t\\t\\t\\t\\t\\t\\t\\t\\t\\t\\t\\t<td align="right"><a href="chuHunt.html?args=\', escape=False)\n        response.write(place.sculpture_id)\n        response.write(\'"><button class="button2"><img src="../static/images/esculturaBloqueada.png" height="60px" widht="60px"/></button></a>\\r\\n\\t\\t\\t\\t\\t\\t\\t\\t\\t\\t\\t\\t\', escape=False)\n    else:\n        response.write(\'\\r\\n\\t\\t\\t\\t\\t\\t\\t\\t\\t\\t\\t\\t<td align="right"><a href="chuSculptInfo.html?args=\', escape=False)\n        response.write(place.sculpture_id)\n        response.write(\'"><button class="button2"><img src="../static/images/escultura1.png" height="60px" widht="60px"/></button></td>\\r\\n\\t\\t\\t\\t\\t\\t\\t\\t\\t\\t\\t\\t</td>\\r\\n\\t\\t\\t\\t\\t\\t\\t\\t\\t\\t\\t\\t\', escape=False)\n        pass\n    response.write(\'\\r\\n\\t\\t\\t\\t\\t\\t\\t\\t\\t\\t\\t\\t\', escape=False)\n    pass\nresponse.write(\'\\r\\n\\t\\t\\t\\t\\t\\t\\t\\t\\t\\t\\t</tr>\\r\\n\\t\\t\\t\\t\\t\\t\\t\\t\\t\\t</table>\\r\\n\\t\\t\\t\\t\\t\\t\\t\\t\\t</div>\\r\\n\\t\\t\\t\\t\\t\\t\\t\\t</div>\\r\\n\\t\\t\\t\\t\\t\\t\\t</div>\\r\\n\\t\\t\\t\\t\\t\\t</div>\\r\\n\\t\\t\\t\\t\\t</div>\\r\\n\\t\\t\\t\\t\\t</center>\\r\\n\\t\\t\\t\\t\\t<center>\\r\\n\\t\\t\\t\\t\\t\\t<form class="btn btn-dafault atras" onclick="history.back()"><img src="\', escape=False)\nresponse.write(URL(\'static\',\'images/atras.png\'))\nresponse.write(\'" width="80" height="30"/>\\r\\n\\t\\t      \\t\\t\\t</form>\\r\\n\\t\\t\\t\\t\\t<button class="mapa" style="background-color:transparent;"><a href="\', escape=False)\nresponse.write(URL(\'chuGame\',\'chuMap\'))\nresponse.write(\'"><img src="\', escape=False)\nresponse.write(URL(\'static\',\'images/mapa.png\'))\nresponse.write(\'" width="80" height="100"/></a></button>\\r\\n\\t\\t\\t\\t\\t</center>\\r\\n\\t\\t\\t\\t</div>\\r\\n\\t\\t\\t</div>\\r\\n\\t\\t</div>\\r\\n\\t</div>\\r\\n</div>\\r\\n</body>\\r\\n</html>\\r\\n\', escape=False)\nresponse.write(\'\\r\\n\\r\\n<!-- Librer\\xc3\\xada jQuery requerida por los plugins de JavaScript -->\\r\\n  <script src="http://code.jquery.com/jquery.js"></script>\\r\\n<!-- Versi\\xc3\\xb3n compilada y comprimida del JavaScript de Bootstrap -->\\r\\n    <script src="//netdna.bootstrapcdn.com/bootstrap/3.1.0/js/bootstrap.min.js"></script>\\r\\n  </body>\\r\\n\\r\\n</html>\', escape=False)'
p7
sS'snapshot'
p8
(dp9
sS'traceback'
p10
S'Traceback (most recent call last):\n  File "D:\\Informatorio2016\\ET1\\Road to Python\\Web2py\\web2py\\gluon\\restricted.py", line 227, in restricted\n    exec ccode in environment\n  File "D:\\Informatorio2016\\ET1\\Road to Python\\Web2py\\web2py\\applications\\ChuwalR\\views\\chuGame/chuList.html", line 69, in <module>\n    </div>\n  File "D:\\Informatorio2016\\ET1\\Road to Python\\Web2py\\web2py\\gluon\\packages\\dal\\pydal\\objects.py", line 2020, in select\n    return adapter.select(self.query, fields, attributes)\n  File "D:\\Informatorio2016\\ET1\\Road to Python\\Web2py\\web2py\\gluon\\packages\\dal\\pydal\\adapters\\sqlite.py", line 123, in select\n    return super(SQLiteAdapter, self).select(query, fields, attributes)\n  File "D:\\Informatorio2016\\ET1\\Road to Python\\Web2py\\web2py\\gluon\\packages\\dal\\pydal\\adapters\\base.py", line 1283, in select\n    sql = self._select(query, fields, attributes)\n  File "D:\\Informatorio2016\\ET1\\Road to Python\\Web2py\\web2py\\gluon\\packages\\dal\\pydal\\adapters\\base.py", line 1170, in _select\n    sql_w = \' WHERE \' + self.expand(query) if query else \'\'\n  File "D:\\Informatorio2016\\ET1\\Road to Python\\Web2py\\web2py\\gluon\\packages\\dal\\pydal\\adapters\\base.py", line 952, in expand\n    rv = op(first, second, **optional_args)\n  File "D:\\Informatorio2016\\ET1\\Road to Python\\Web2py\\web2py\\gluon\\packages\\dal\\pydal\\adapters\\base.py", line 846, in EQ\n    self.expand(second, first.type))\n  File "D:\\Informatorio2016\\ET1\\Road to Python\\Web2py\\web2py\\gluon\\packages\\dal\\pydal\\adapters\\base.py", line 962, in expand\n    rv = self.represent(expression, field_type)\n  File "D:\\Informatorio2016\\ET1\\Road to Python\\Web2py\\web2py\\gluon\\packages\\dal\\pydal\\adapters\\base.py", line 1442, in represent\n    return str(long(obj))\nValueError: invalid literal for long() with base 10: \'Emi\'\n'
p11
s.